
/home/zzy/Desktop/ics2019/nexus-am/tests/cputest/build/bubble-sort-riscv32-nemu.elf:     file format elf32-littleriscv


Disassembly of section .text:

80100000 <_start>:
80100000:	00000413          	li	s0,0
80100004:	00009117          	auipc	sp,0x9
80100008:	ffc10113          	addi	sp,sp,-4 # 80109000 <_end>
8010000c:	190000ef          	jal	ra,8010019c <_trm_init>

80100010 <nemu_assert>:
80100010:	00050463          	beqz	a0,80100018 <nemu_assert+0x8>
80100014:	00008067          	ret
80100018:	ff010113          	addi	sp,sp,-16
8010001c:	00100513          	li	a0,1
80100020:	00112623          	sw	ra,12(sp)
80100024:	16c000ef          	jal	ra,80100190 <_halt>

80100028 <bubble_sort>:
80100028:	80100537          	lui	a0,0x80100
8010002c:	01300593          	li	a1,19
80100030:	1bc50513          	addi	a0,a0,444 # 801001bc <_heap_end+0xf81001bc>
80100034:	fff00813          	li	a6,-1
80100038:	00000713          	li	a4,0
8010003c:	00050793          	mv	a5,a0
80100040:	02b75263          	ble	a1,a4,80100064 <bubble_sort+0x3c>
80100044:	0007a683          	lw	a3,0(a5)
80100048:	0047a603          	lw	a2,4(a5)
8010004c:	00170713          	addi	a4,a4,1
80100050:	00d65663          	ble	a3,a2,8010005c <bubble_sort+0x34>
80100054:	00c7a023          	sw	a2,0(a5)
80100058:	00d7a223          	sw	a3,4(a5)
8010005c:	00478793          	addi	a5,a5,4
80100060:	feb742e3          	blt	a4,a1,80100044 <bubble_sort+0x1c>
80100064:	fff58593          	addi	a1,a1,-1
80100068:	fd0598e3          	bne	a1,a6,80100038 <bubble_sort+0x10>
8010006c:	00008067          	ret

Disassembly of section .text.startup:

80100070 <main>:
80100070:	fe010113          	addi	sp,sp,-32
80100074:	01212823          	sw	s2,16(sp)
80100078:	80100937          	lui	s2,0x80100
8010007c:	00112e23          	sw	ra,28(sp)
80100080:	00812c23          	sw	s0,24(sp)
80100084:	00912a23          	sw	s1,20(sp)
80100088:	01312623          	sw	s3,12(sp)
8010008c:	01412423          	sw	s4,8(sp)
80100090:	01300593          	li	a1,19
80100094:	1bc90913          	addi	s2,s2,444 # 801001bc <_heap_end+0xf81001bc>
80100098:	fff00513          	li	a0,-1
8010009c:	00000713          	li	a4,0
801000a0:	00090493          	mv	s1,s2
801000a4:	00090793          	mv	a5,s2
801000a8:	02b75263          	ble	a1,a4,801000cc <main+0x5c>
801000ac:	0007a683          	lw	a3,0(a5)
801000b0:	0047a603          	lw	a2,4(a5)
801000b4:	00170713          	addi	a4,a4,1
801000b8:	00d65663          	ble	a3,a2,801000c4 <main+0x54>
801000bc:	00c7a023          	sw	a2,0(a5)
801000c0:	00d7a223          	sw	a3,4(a5)
801000c4:	00478793          	addi	a5,a5,4
801000c8:	feb742e3          	blt	a4,a1,801000ac <main+0x3c>
801000cc:	fff58593          	addi	a1,a1,-1
801000d0:	fca596e3          	bne	a1,a0,8010009c <main+0x2c>
801000d4:	00090993          	mv	s3,s2
801000d8:	00000413          	li	s0,0
801000dc:	01400a13          	li	s4,20
801000e0:	0009a503          	lw	a0,0(s3)
801000e4:	00498993          	addi	s3,s3,4
801000e8:	40850533          	sub	a0,a0,s0
801000ec:	00153513          	seqz	a0,a0
801000f0:	00140413          	addi	s0,s0,1
801000f4:	f1dff0ef          	jal	ra,80100010 <nemu_assert>
801000f8:	ff4414e3          	bne	s0,s4,801000e0 <main+0x70>
801000fc:	00100513          	li	a0,1
80100100:	f11ff0ef          	jal	ra,80100010 <nemu_assert>
80100104:	01300593          	li	a1,19
80100108:	fff00513          	li	a0,-1
8010010c:	00000713          	li	a4,0
80100110:	00090793          	mv	a5,s2
80100114:	02b75263          	ble	a1,a4,80100138 <main+0xc8>
80100118:	0007a683          	lw	a3,0(a5)
8010011c:	0047a603          	lw	a2,4(a5)
80100120:	00170713          	addi	a4,a4,1
80100124:	00d65663          	ble	a3,a2,80100130 <main+0xc0>
80100128:	00c7a023          	sw	a2,0(a5)
8010012c:	00d7a223          	sw	a3,4(a5)
80100130:	00478793          	addi	a5,a5,4
80100134:	feb742e3          	blt	a4,a1,80100118 <main+0xa8>
80100138:	fff58593          	addi	a1,a1,-1
8010013c:	fca598e3          	bne	a1,a0,8010010c <main+0x9c>
80100140:	00000413          	li	s0,0
80100144:	01400913          	li	s2,20
80100148:	0004a503          	lw	a0,0(s1)
8010014c:	00448493          	addi	s1,s1,4
80100150:	40850533          	sub	a0,a0,s0
80100154:	00153513          	seqz	a0,a0
80100158:	00140413          	addi	s0,s0,1
8010015c:	eb5ff0ef          	jal	ra,80100010 <nemu_assert>
80100160:	ff2414e3          	bne	s0,s2,80100148 <main+0xd8>
80100164:	00100513          	li	a0,1
80100168:	ea9ff0ef          	jal	ra,80100010 <nemu_assert>
8010016c:	01c12083          	lw	ra,28(sp)
80100170:	01812403          	lw	s0,24(sp)
80100174:	01412483          	lw	s1,20(sp)
80100178:	01012903          	lw	s2,16(sp)
8010017c:	00c12983          	lw	s3,12(sp)
80100180:	00812a03          	lw	s4,8(sp)
80100184:	00000513          	li	a0,0
80100188:	02010113          	addi	sp,sp,32
8010018c:	00008067          	ret

Disassembly of section .text._halt:

80100190 <_halt>:
80100190:	00050513          	mv	a0,a0
80100194:	0000006b          	0x6b
80100198:	0000006f          	j	80100198 <_halt+0x8>

Disassembly of section .text._trm_init:

8010019c <_trm_init>:
8010019c:	80000537          	lui	a0,0x80000
801001a0:	ff010113          	addi	sp,sp,-16
801001a4:	00050513          	mv	a0,a0
801001a8:	00112623          	sw	ra,12(sp)
801001ac:	ec5ff0ef          	jal	ra,80100070 <_etext>
801001b0:	00050513          	mv	a0,a0
801001b4:	0000006b          	0x6b
801001b8:	0000006f          	j	801001b8 <_trm_init+0x1c>
