
/home/zzy/Desktop/ics2019/nexus-am/tests/cputest/build/fact-riscv32-nemu.elf:     file format elf32-littleriscv


Disassembly of section .text:

80100000 <_start>:
80100000:	00000413          	li	s0,0
80100004:	00009117          	auipc	sp,0x9
80100008:	ffc10113          	addi	sp,sp,-4 # 80109000 <_end>
8010000c:	108000ef          	jal	ra,80100114 <_trm_init>

80100010 <nemu_assert>:
80100010:	00050463          	beqz	a0,80100018 <nemu_assert+0x8>
80100014:	00008067          	ret
80100018:	ff010113          	addi	sp,sp,-16
8010001c:	00100513          	li	a0,1
80100020:	00112623          	sw	ra,12(sp)
80100024:	0e4000ef          	jal	ra,80100108 <_halt>

80100028 <fact>:
80100028:	00050793          	mv	a5,a0
8010002c:	00100513          	li	a0,1
80100030:	00100713          	li	a4,1
80100034:	00f57863          	bleu	a5,a0,80100044 <fact+0x1c>
80100038:	02f50533          	mul	a0,a0,a5
8010003c:	fff78793          	addi	a5,a5,-1
80100040:	fee79ce3          	bne	a5,a4,80100038 <fact+0x10>
80100044:	00008067          	ret

Disassembly of section .text.startup:

80100048 <main>:
80100048:	fe010113          	addi	sp,sp,-32
8010004c:	01212823          	sw	s2,16(sp)
80100050:	80100937          	lui	s2,0x80100
80100054:	13490913          	addi	s2,s2,308 # 80100134 <_heap_end+0xf8100134>
80100058:	00092783          	lw	a5,0(s2)
8010005c:	01312623          	sw	s3,12(sp)
80100060:	801009b7          	lui	s3,0x80100
80100064:	00100513          	li	a0,1
80100068:	16898993          	addi	s3,s3,360 # 80100168 <_heap_end+0xf8100168>
8010006c:	00912a23          	sw	s1,20(sp)
80100070:	00a9a023          	sw	a0,0(s3)
80100074:	00000493          	li	s1,0
80100078:	40a78533          	sub	a0,a5,a0
8010007c:	01412423          	sw	s4,8(sp)
80100080:	00148493          	addi	s1,s1,1
80100084:	00d00a13          	li	s4,13
80100088:	00153513          	seqz	a0,a0
8010008c:	00812c23          	sw	s0,24(sp)
80100090:	00112e23          	sw	ra,28(sp)
80100094:	00100413          	li	s0,1
80100098:	f79ff0ef          	jal	ra,80100010 <nemu_assert>
8010009c:	05448063          	beq	s1,s4,801000dc <main+0x94>
801000a0:	06848063          	beq	s1,s0,80100100 <main+0xb8>
801000a4:	00048793          	mv	a5,s1
801000a8:	00100513          	li	a0,1
801000ac:	02f50533          	mul	a0,a0,a5
801000b0:	fff78793          	addi	a5,a5,-1
801000b4:	fe879ce3          	bne	a5,s0,801000ac <main+0x64>
801000b8:	00490913          	addi	s2,s2,4
801000bc:	00092783          	lw	a5,0(s2)
801000c0:	00498993          	addi	s3,s3,4
801000c4:	00a9a023          	sw	a0,0(s3)
801000c8:	40a78533          	sub	a0,a5,a0
801000cc:	00148493          	addi	s1,s1,1
801000d0:	00153513          	seqz	a0,a0
801000d4:	f3dff0ef          	jal	ra,80100010 <nemu_assert>
801000d8:	fd4494e3          	bne	s1,s4,801000a0 <main+0x58>
801000dc:	01c12083          	lw	ra,28(sp)
801000e0:	01812403          	lw	s0,24(sp)
801000e4:	01412483          	lw	s1,20(sp)
801000e8:	01012903          	lw	s2,16(sp)
801000ec:	00c12983          	lw	s3,12(sp)
801000f0:	00812a03          	lw	s4,8(sp)
801000f4:	00000513          	li	a0,0
801000f8:	02010113          	addi	sp,sp,32
801000fc:	00008067          	ret
80100100:	00100513          	li	a0,1
80100104:	fb5ff06f          	j	801000b8 <main+0x70>

Disassembly of section .text._halt:

80100108 <_halt>:
80100108:	00050513          	mv	a0,a0
8010010c:	0000006b          	0x6b
80100110:	0000006f          	j	80100110 <_halt+0x8>

Disassembly of section .text._trm_init:

80100114 <_trm_init>:
80100114:	80000537          	lui	a0,0x80000
80100118:	ff010113          	addi	sp,sp,-16
8010011c:	00050513          	mv	a0,a0
80100120:	00112623          	sw	ra,12(sp)
80100124:	f25ff0ef          	jal	ra,80100048 <_etext>
80100128:	00050513          	mv	a0,a0
8010012c:	0000006b          	0x6b
80100130:	0000006f          	j	80100130 <_trm_init+0x1c>
