
/home/zzy/Desktop/ics2019/nexus-am/tests/cputest/build/if-else-riscv32-nemu.elf:     file format elf32-littleriscv


Disassembly of section .text:

80100000 <_start>:
80100000:	00000413          	li	s0,0
80100004:	00009117          	auipc	sp,0x9
80100008:	ffc10113          	addi	sp,sp,-4 # 80109000 <_end>
8010000c:	124000ef          	jal	ra,80100130 <_trm_init>

80100010 <nemu_assert>:
80100010:	00050463          	beqz	a0,80100018 <nemu_assert+0x8>
80100014:	00008067          	ret
80100018:	ff010113          	addi	sp,sp,-16
8010001c:	00100513          	li	a0,1
80100020:	00112623          	sw	ra,12(sp)
80100024:	100000ef          	jal	ra,80100124 <_halt>

80100028 <if_else>:
80100028:	1f400713          	li	a4,500
8010002c:	00050793          	mv	a5,a0
80100030:	02a74863          	blt	a4,a0,80100060 <if_else+0x38>
80100034:	12c00713          	li	a4,300
80100038:	06400513          	li	a0,100
8010003c:	02f74463          	blt	a4,a5,80100064 <if_else+0x3c>
80100040:	06400713          	li	a4,100
80100044:	04b00513          	li	a0,75
80100048:	00f74e63          	blt	a4,a5,80100064 <if_else+0x3c>
8010004c:	03200513          	li	a0,50
80100050:	00f52533          	slt	a0,a0,a5
80100054:	40a00533          	neg	a0,a0
80100058:	03257513          	andi	a0,a0,50
8010005c:	00008067          	ret
80100060:	09600513          	li	a0,150
80100064:	00008067          	ret

Disassembly of section .text.startup:

80100068 <main>:
80100068:	fe010113          	addi	sp,sp,-32
8010006c:	00812c23          	sw	s0,24(sp)
80100070:	80100437          	lui	s0,0x80100
80100074:	15040413          	addi	s0,s0,336 # 80100150 <_heap_end+0xf8100150>
80100078:	00912a23          	sw	s1,20(sp)
8010007c:	03840493          	addi	s1,s0,56
80100080:	01212823          	sw	s2,16(sp)
80100084:	01312623          	sw	s3,12(sp)
80100088:	01412423          	sw	s4,8(sp)
8010008c:	01512223          	sw	s5,4(sp)
80100090:	01612023          	sw	s6,0(sp)
80100094:	00112e23          	sw	ra,28(sp)
80100098:	00048993          	mv	s3,s1
8010009c:	1f400913          	li	s2,500
801000a0:	12c00a93          	li	s5,300
801000a4:	06400b13          	li	s6,100
801000a8:	03200a13          	li	s4,50
801000ac:	00042783          	lw	a5,0(s0)
801000b0:	09600713          	li	a4,150
801000b4:	00440413          	addi	s0,s0,4
801000b8:	02f94063          	blt	s2,a5,801000d8 <main+0x70>
801000bc:	00fa2733          	slt	a4,s4,a5
801000c0:	40e006b3          	neg	a3,a4
801000c4:	06400713          	li	a4,100
801000c8:	00fac863          	blt	s5,a5,801000d8 <main+0x70>
801000cc:	04b00713          	li	a4,75
801000d0:	00fb4463          	blt	s6,a5,801000d8 <main+0x70>
801000d4:	0326f713          	andi	a4,a3,50
801000d8:	0004a503          	lw	a0,0(s1)
801000dc:	00448493          	addi	s1,s1,4
801000e0:	40e50533          	sub	a0,a0,a4
801000e4:	00153513          	seqz	a0,a0
801000e8:	f29ff0ef          	jal	ra,80100010 <nemu_assert>
801000ec:	fd3410e3          	bne	s0,s3,801000ac <main+0x44>
801000f0:	00100513          	li	a0,1
801000f4:	f1dff0ef          	jal	ra,80100010 <nemu_assert>
801000f8:	01c12083          	lw	ra,28(sp)
801000fc:	01812403          	lw	s0,24(sp)
80100100:	01412483          	lw	s1,20(sp)
80100104:	01012903          	lw	s2,16(sp)
80100108:	00c12983          	lw	s3,12(sp)
8010010c:	00812a03          	lw	s4,8(sp)
80100110:	00412a83          	lw	s5,4(sp)
80100114:	00012b03          	lw	s6,0(sp)
80100118:	00000513          	li	a0,0
8010011c:	02010113          	addi	sp,sp,32
80100120:	00008067          	ret

Disassembly of section .text._halt:

80100124 <_halt>:
80100124:	00050513          	mv	a0,a0
80100128:	0000006b          	0x6b
8010012c:	0000006f          	j	8010012c <_halt+0x8>

Disassembly of section .text._trm_init:

80100130 <_trm_init>:
80100130:	80000537          	lui	a0,0x80000
80100134:	ff010113          	addi	sp,sp,-16
80100138:	00050513          	mv	a0,a0
8010013c:	00112623          	sw	ra,12(sp)
80100140:	f29ff0ef          	jal	ra,80100068 <_etext>
80100144:	00050513          	mv	a0,a0
80100148:	0000006b          	0x6b
8010014c:	0000006f          	j	8010014c <_trm_init+0x1c>
