
/home/zzy/Desktop/nexus-am/tests/cputest/build/leap-year-riscv64-nutshell.elf:     file format elf64-littleriscv


Disassembly of section .text:

0000000080000000 <_start>:
    80000000:	00000413          	li	s0,0
    80000004:	00009117          	auipc	sp,0x9
    80000008:	ffc10113          	addi	sp,sp,-4 # 80009000 <_end>
    8000000c:	108000ef          	jal	ra,80000114 <_trm_init>

0000000080000010 <nemu_assert>:
    80000010:	00050463          	beqz	a0,80000018 <nemu_assert+0x8>
    80000014:	00008067          	ret
    80000018:	ff010113          	addi	sp,sp,-16
    8000001c:	00100513          	li	a0,1
    80000020:	00113423          	sd	ra,8(sp)
    80000024:	0cc000ef          	jal	ra,800000f0 <_halt>

0000000080000028 <is_leap_year>:
    80000028:	00357793          	andi	a5,a0,3
    8000002c:	00079a63          	bnez	a5,80000040 <is_leap_year+0x18>
    80000030:	06400713          	li	a4,100
    80000034:	02e5673b          	remw	a4,a0,a4
    80000038:	00100793          	li	a5,1
    8000003c:	00071863          	bnez	a4,8000004c <is_leap_year+0x24>
    80000040:	19000793          	li	a5,400
    80000044:	02f5653b          	remw	a0,a0,a5
    80000048:	00153793          	seqz	a5,a0
    8000004c:	00078513          	mv	a0,a5
    80000050:	00008067          	ret

Disassembly of section .text.startup:

0000000080000054 <main>:
    80000054:	fd010113          	addi	sp,sp,-48
    80000058:	02813023          	sd	s0,32(sp)
    8000005c:	00913c23          	sd	s1,24(sp)
    80000060:	01213823          	sd	s2,16(sp)
    80000064:	01313423          	sd	s3,8(sp)
    80000068:	01413023          	sd	s4,0(sp)
    8000006c:	02113423          	sd	ra,40(sp)
    80000070:	00001497          	auipc	s1,0x1
    80000074:	d0848493          	addi	s1,s1,-760 # 80000d78 <ans>
    80000078:	00001917          	auipc	s2,0x1
    8000007c:	ef490913          	addi	s2,s2,-268 # 80000f6c <_bss_start>
    80000080:	76200413          	li	s0,1890
    80000084:	19000993          	li	s3,400
    80000088:	06400a13          	li	s4,100
    8000008c:	00347793          	andi	a5,s0,3
    80000090:	0004071b          	sext.w	a4,s0
    80000094:	00079863          	bnez	a5,800000a4 <main+0x50>
    80000098:	034766bb          	remw	a3,a4,s4
    8000009c:	00100793          	li	a5,1
    800000a0:	00069663          	bnez	a3,800000ac <main+0x58>
    800000a4:	0337673b          	remw	a4,a4,s3
    800000a8:	00173793          	seqz	a5,a4
    800000ac:	0004a503          	lw	a0,0(s1)
    800000b0:	00448493          	addi	s1,s1,4
    800000b4:	0014041b          	addiw	s0,s0,1
    800000b8:	40f50533          	sub	a0,a0,a5
    800000bc:	00153513          	seqz	a0,a0
    800000c0:	f51ff0ef          	jal	ra,80000010 <nemu_assert>
    800000c4:	fd2494e3          	bne	s1,s2,8000008c <main+0x38>
    800000c8:	02813083          	ld	ra,40(sp)
    800000cc:	02013403          	ld	s0,32(sp)
    800000d0:	01813483          	ld	s1,24(sp)
    800000d4:	01013903          	ld	s2,16(sp)
    800000d8:	00813983          	ld	s3,8(sp)
    800000dc:	00013a03          	ld	s4,0(sp)
    800000e0:	00000513          	li	a0,0
    800000e4:	03010113          	addi	sp,sp,48
    800000e8:	00008067          	ret

Disassembly of section .text._putc:

00000000800000ec <_putc>:
    800000ec:	0480006f          	j	80000134 <__am_uartlite_putchar>

Disassembly of section .text._halt:

00000000800000f0 <_halt>:
    800000f0:	ff010113          	addi	sp,sp,-16
    800000f4:	00113423          	sd	ra,8(sp)
    800000f8:	00050593          	mv	a1,a0
    800000fc:	00050513          	mv	a0,a0
    80000100:	0005006b          	0x5006b
    80000104:	00001517          	auipc	a0,0x1
    80000108:	ad450513          	addi	a0,a0,-1324 # 80000bd8 <strlen+0x30>
    8000010c:	251000ef          	jal	ra,80000b5c <printf>
    80000110:	0000006f          	j	80000110 <_halt+0x20>

Disassembly of section .text._trm_init:

0000000080000114 <_trm_init>:
    80000114:	ff010113          	addi	sp,sp,-16
    80000118:	00113423          	sd	ra,8(sp)
    8000011c:	014000ef          	jal	ra,80000130 <__am_init_uartlite>
    80000120:	00001517          	auipc	a0,0x1
    80000124:	acd50513          	addi	a0,a0,-1331 # 80000bed <__am_mainargs>
    80000128:	f2dff0ef          	jal	ra,80000054 <_etext>
    8000012c:	fc5ff0ef          	jal	ra,800000f0 <_halt>

Disassembly of section .text.__am_init_uartlite:

0000000080000130 <__am_init_uartlite>:
    80000130:	00008067          	ret

Disassembly of section .text.__am_uartlite_putchar:

0000000080000134 <__am_uartlite_putchar>:
    80000134:	00008067          	ret

Disassembly of section .text.__putch:

0000000080000138 <__putch>:
    80000138:	08058c63          	beqz	a1,800001d0 <__putch+0x98>
    8000013c:	fd010113          	addi	sp,sp,-48
    80000140:	02813023          	sd	s0,32(sp)
    80000144:	00913c23          	sd	s1,24(sp)
    80000148:	01213823          	sd	s2,16(sp)
    8000014c:	01313423          	sd	s3,8(sp)
    80000150:	02113423          	sd	ra,40(sp)
    80000154:	fff5849b          	addiw	s1,a1,-1
    80000158:	00060413          	mv	s0,a2
    8000015c:	00050993          	mv	s3,a0
    80000160:	fff00913          	li	s2,-1
    80000164:	0280006f          	j	8000018c <__putch+0x54>
    80000168:	01843703          	ld	a4,24(s0)
    8000016c:	00e78663          	beq	a5,a4,80000178 <__putch+0x40>
    80000170:	00d43823          	sd	a3,16(s0)
    80000174:	01378023          	sb	s3,0(a5)
    80000178:	02043783          	ld	a5,32(s0)
    8000017c:	fff4849b          	addiw	s1,s1,-1
    80000180:	00178793          	addi	a5,a5,1
    80000184:	02f43023          	sd	a5,32(s0)
    80000188:	03248663          	beq	s1,s2,800001b4 <__putch+0x7c>
    8000018c:	01043783          	ld	a5,16(s0)
    80000190:	00178693          	addi	a3,a5,1
    80000194:	fc079ae3          	bnez	a5,80000168 <__putch+0x30>
    80000198:	00098513          	mv	a0,s3
    8000019c:	f51ff0ef          	jal	ra,800000ec <_putc>
    800001a0:	02043783          	ld	a5,32(s0)
    800001a4:	fff4849b          	addiw	s1,s1,-1
    800001a8:	00178793          	addi	a5,a5,1
    800001ac:	02f43023          	sd	a5,32(s0)
    800001b0:	fd249ee3          	bne	s1,s2,8000018c <__putch+0x54>
    800001b4:	02813083          	ld	ra,40(sp)
    800001b8:	02013403          	ld	s0,32(sp)
    800001bc:	01813483          	ld	s1,24(sp)
    800001c0:	01013903          	ld	s2,16(sp)
    800001c4:	00813983          	ld	s3,8(sp)
    800001c8:	03010113          	addi	sp,sp,48
    800001cc:	00008067          	ret
    800001d0:	00008067          	ret

Disassembly of section .text.vsnprintf_internal:

00000000800001d4 <vsnprintf_internal>:
    800001d4:	f1010113          	addi	sp,sp,-240
    800001d8:	0e813023          	sd	s0,224(sp)
    800001dc:	0d413023          	sd	s4,192(sp)
    800001e0:	0e113423          	sd	ra,232(sp)
    800001e4:	0c913c23          	sd	s1,216(sp)
    800001e8:	0d213823          	sd	s2,208(sp)
    800001ec:	0d313423          	sd	s3,200(sp)
    800001f0:	0b513c23          	sd	s5,184(sp)
    800001f4:	0b613823          	sd	s6,176(sp)
    800001f8:	0b713423          	sd	s7,168(sp)
    800001fc:	0b813023          	sd	s8,160(sp)
    80000200:	09913c23          	sd	s9,152(sp)
    80000204:	09a13823          	sd	s10,144(sp)
    80000208:	09b13423          	sd	s11,136(sp)
    8000020c:	00013c23          	sd	zero,24(sp)
    80000210:	02013023          	sd	zero,32(sp)
    80000214:	02013c23          	sd	zero,56(sp)
    80000218:	02a13423          	sd	a0,40(sp)
    8000021c:	00060413          	mv	s0,a2
    80000220:	00068a13          	mv	s4,a3
    80000224:	00050663          	beqz	a0,80000230 <vsnprintf_internal+0x5c>
    80000228:	00b50533          	add	a0,a0,a1
    8000022c:	58058863          	beqz	a1,800007bc <vsnprintf_internal+0x5e8>
    80000230:	02a13823          	sd	a0,48(sp)
    80000234:	00001917          	auipc	s2,0x1
    80000238:	9c090913          	addi	s2,s2,-1600 # 80000bf4 <__am_mainargs+0x7>
    8000023c:	03900a93          	li	s5,57
    80000240:	00001997          	auipc	s3,0x1
    80000244:	b2098993          	addi	s3,s3,-1248 # 80000d60 <__am_mainargs+0x173>
    80000248:	00044503          	lbu	a0,0(s0)
    8000024c:	02050263          	beqz	a0,80000270 <vsnprintf_internal+0x9c>
    80000250:	02500793          	li	a5,37
    80000254:	00140413          	addi	s0,s0,1
    80000258:	06f50263          	beq	a0,a5,800002bc <vsnprintf_internal+0xe8>
    8000025c:	01810613          	addi	a2,sp,24
    80000260:	00100593          	li	a1,1
    80000264:	ed5ff0ef          	jal	ra,80000138 <__putch>
    80000268:	00044503          	lbu	a0,0(s0)
    8000026c:	fe0512e3          	bnez	a0,80000250 <vsnprintf_internal+0x7c>
    80000270:	02813783          	ld	a5,40(sp)
    80000274:	00078463          	beqz	a5,8000027c <vsnprintf_internal+0xa8>
    80000278:	00078023          	sb	zero,0(a5)
    8000027c:	0e813083          	ld	ra,232(sp)
    80000280:	0e013403          	ld	s0,224(sp)
    80000284:	03812503          	lw	a0,56(sp)
    80000288:	0d813483          	ld	s1,216(sp)
    8000028c:	0d013903          	ld	s2,208(sp)
    80000290:	0c813983          	ld	s3,200(sp)
    80000294:	0c013a03          	ld	s4,192(sp)
    80000298:	0b813a83          	ld	s5,184(sp)
    8000029c:	0b013b03          	ld	s6,176(sp)
    800002a0:	0a813b83          	ld	s7,168(sp)
    800002a4:	0a013c03          	ld	s8,160(sp)
    800002a8:	09813c83          	ld	s9,152(sp)
    800002ac:	09013d03          	ld	s10,144(sp)
    800002b0:	08813d83          	ld	s11,136(sp)
    800002b4:	0f010113          	addi	sp,sp,240
    800002b8:	00008067          	ret
    800002bc:	02000793          	li	a5,32
    800002c0:	00f10e23          	sb	a5,28(sp)
    800002c4:	00012c23          	sw	zero,24(sp)
    800002c8:	02012023          	sw	zero,32(sp)
    800002cc:	00040793          	mv	a5,s0
    800002d0:	00000b93          	li	s7,0
    800002d4:	00000b13          	li	s6,0
    800002d8:	00000c13          	li	s8,0
    800002dc:	05800693          	li	a3,88
    800002e0:	06c00e13          	li	t3,108
    800002e4:	06800313          	li	t1,104
    800002e8:	02f00593          	li	a1,47
    800002ec:	02d00e93          	li	t4,45
    800002f0:	00900613          	li	a2,9
    800002f4:	02000813          	li	a6,32
    800002f8:	00100513          	li	a0,1
    800002fc:	02b00893          	li	a7,43
    80000300:	02b00f13          	li	t5,43
    80000304:	0007c703          	lbu	a4,0(a5)
    80000308:	00140413          	addi	s0,s0,1
    8000030c:	fe07079b          	addiw	a5,a4,-32
    80000310:	0ff7f793          	andi	a5,a5,255
    80000314:	f2f6eae3          	bltu	a3,a5,80000248 <vsnprintf_internal+0x74>
    80000318:	00279793          	slli	a5,a5,0x2
    8000031c:	012787b3          	add	a5,a5,s2
    80000320:	0007a783          	lw	a5,0(a5)
    80000324:	012787b3          	add	a5,a5,s2
    80000328:	00078067          	jr	a5
    8000032c:	fd070c1b          	addiw	s8,a4,-48
    80000330:	00044703          	lbu	a4,0(s0)
    80000334:	00140413          	addi	s0,s0,1
    80000338:	02e5f463          	bleu	a4,a1,80000360 <vsnprintf_internal+0x18c>
    8000033c:	fceae8e3          	bltu	s5,a4,8000030c <vsnprintf_internal+0x138>
    80000340:	002c179b          	slliw	a5,s8,0x2
    80000344:	01878c3b          	addw	s8,a5,s8
    80000348:	001c1c1b          	slliw	s8,s8,0x1
    8000034c:	00140413          	addi	s0,s0,1
    80000350:	00ec0c3b          	addw	s8,s8,a4
    80000354:	fff44703          	lbu	a4,-1(s0)
    80000358:	fd0c0c1b          	addiw	s8,s8,-48
    8000035c:	fee5e0e3          	bltu	a1,a4,8000033c <vsnprintf_internal+0x168>
    80000360:	fbd716e3          	bne	a4,t4,8000030c <vsnprintf_internal+0x138>
    80000364:	41800c3b          	negw	s8,s8
    80000368:	00040793          	mv	a5,s0
    8000036c:	f99ff06f          	j	80000304 <vsnprintf_internal+0x130>
    80000370:	00200793          	li	a5,2
    80000374:	008a0513          	addi	a0,s4,8
    80000378:	74fb8063          	beq	s7,a5,80000ab8 <vsnprintf_internal+0x8e4>
    8000037c:	4b77da63          	ble	s7,a5,80000830 <vsnprintf_internal+0x65c>
    80000380:	00300793          	li	a5,3
    80000384:	00fb8663          	beq	s7,a5,80000390 <vsnprintf_internal+0x1bc>
    80000388:	00400793          	li	a5,4
    8000038c:	72fb9a63          	bne	s7,a5,80000ac0 <vsnprintf_internal+0x8ec>
    80000390:	000a3483          	ld	s1,0(s4)
    80000394:	01810c93          	addi	s9,sp,24
    80000398:	00050a13          	mv	s4,a0
    8000039c:	06010fa3          	sb	zero,127(sp)
    800003a0:	07f10713          	addi	a4,sp,127
    800003a4:	00f00613          	li	a2,15
    800003a8:	0080006f          	j	800003b0 <vsnprintf_internal+0x1dc>
    800003ac:	00068493          	mv	s1,a3
    800003b0:	00f4f793          	andi	a5,s1,15
    800003b4:	00f987b3          	add	a5,s3,a5
    800003b8:	0007c783          	lbu	a5,0(a5)
    800003bc:	fff70713          	addi	a4,a4,-1
    800003c0:	0044d693          	srli	a3,s1,0x4
    800003c4:	00f70023          	sb	a5,0(a4)
    800003c8:	fe9662e3          	bltu	a2,s1,800003ac <vsnprintf_internal+0x1d8>
    800003cc:	08010793          	addi	a5,sp,128
    800003d0:	40e7873b          	subw	a4,a5,a4
    800003d4:	fff70d1b          	addiw	s10,a4,-1
    800003d8:	ffe7079b          	addiw	a5,a4,-2
    800003dc:	fffd4493          	not	s1,s10
    800003e0:	00f13023          	sd	a5,0(sp)
    800003e4:	08010793          	addi	a5,sp,128
    800003e8:	009784b3          	add	s1,a5,s1
    800003ec:	00000b93          	li	s7,0
    800003f0:	136d5a63          	ble	s6,s10,80000524 <vsnprintf_internal+0x350>
    800003f4:	41ab083b          	subw	a6,s6,s10
    800003f8:	01780b3b          	addw	s6,a6,s7
    800003fc:	01ab073b          	addw	a4,s6,s10
    80000400:	00000d93          	li	s11,0
    80000404:	01875463          	ble	s8,a4,8000040c <vsnprintf_internal+0x238>
    80000408:	40ec0dbb          	subw	s11,s8,a4
    8000040c:	01813683          	ld	a3,24(sp)
    80000410:	fff00713          	li	a4,-1
    80000414:	01875713          	srli	a4,a4,0x18
    80000418:	00e6f6b3          	and	a3,a3,a4
    8000041c:	00100713          	li	a4,1
    80000420:	02571713          	slli	a4,a4,0x25
    80000424:	3ae68063          	beq	a3,a4,800007c4 <vsnprintf_internal+0x5f0>
    80000428:	3a0b9c63          	bnez	s7,800007e0 <vsnprintf_internal+0x60c>
    8000042c:	01813683          	ld	a3,24(sp)
    80000430:	fff00713          	li	a4,-1
    80000434:	01875713          	srli	a4,a4,0x18
    80000438:	00e6f6b3          	and	a3,a3,a4
    8000043c:	00300713          	li	a4,3
    80000440:	02471713          	slli	a4,a4,0x24
    80000444:	3ce68863          	beq	a3,a4,80000814 <vsnprintf_internal+0x640>
    80000448:	000c8613          	mv	a2,s9
    8000044c:	00080593          	mv	a1,a6
    80000450:	03000513          	li	a0,48
    80000454:	ce5ff0ef          	jal	ra,80000138 <__putch>
    80000458:	020d0463          	beqz	s10,80000480 <vsnprintf_internal+0x2ac>
    8000045c:	00016b03          	lwu	s6,0(sp)
    80000460:	001b0b13          	addi	s6,s6,1
    80000464:	01648b33          	add	s6,s1,s6
    80000468:	00148493          	addi	s1,s1,1
    8000046c:	fff4c503          	lbu	a0,-1(s1)
    80000470:	000c8613          	mv	a2,s9
    80000474:	00100593          	li	a1,1
    80000478:	cc1ff0ef          	jal	ra,80000138 <__putch>
    8000047c:	ff6496e3          	bne	s1,s6,80000468 <vsnprintf_internal+0x294>
    80000480:	01812783          	lw	a5,24(sp)
    80000484:	dc0782e3          	beqz	a5,80000248 <vsnprintf_internal+0x74>
    80000488:	01c14503          	lbu	a0,28(sp)
    8000048c:	000c8613          	mv	a2,s9
    80000490:	000d8593          	mv	a1,s11
    80000494:	ca5ff0ef          	jal	ra,80000138 <__putch>
    80000498:	db1ff06f          	j	80000248 <vsnprintf_internal+0x74>
    8000049c:	01812783          	lw	a5,24(sp)
    800004a0:	ec0794e3          	bnez	a5,80000368 <vsnprintf_internal+0x194>
    800004a4:	03000793          	li	a5,48
    800004a8:	00f10e23          	sb	a5,28(sp)
    800004ac:	00040793          	mv	a5,s0
    800004b0:	e55ff06f          	j	80000304 <vsnprintf_internal+0x130>
    800004b4:	00200793          	li	a5,2
    800004b8:	60fb8e63          	beq	s7,a5,80000ad4 <vsnprintf_internal+0x900>
    800004bc:	4377d663          	ble	s7,a5,800008e8 <vsnprintf_internal+0x714>
    800004c0:	00300793          	li	a5,3
    800004c4:	64fb8063          	beq	s7,a5,80000b04 <vsnprintf_internal+0x930>
    800004c8:	00400793          	li	a5,4
    800004cc:	00a00713          	li	a4,10
    800004d0:	60fb9a63          	bne	s7,a5,80000ae4 <vsnprintf_internal+0x910>
    800004d4:	00800693          	li	a3,8
    800004d8:	008a0513          	addi	a0,s4,8
    800004dc:	000a3783          	ld	a5,0(s4)
    800004e0:	44d70263          	beq	a4,a3,80000924 <vsnprintf_internal+0x750>
    800004e4:	00a00693          	li	a3,10
    800004e8:	00050a13          	mv	s4,a0
    800004ec:	66d70463          	beq	a4,a3,80000b54 <vsnprintf_internal+0x980>
    800004f0:	fff00793          	li	a5,-1
    800004f4:	00f13023          	sd	a5,0(sp)
    800004f8:	fff00493          	li	s1,-1
    800004fc:	00000b93          	li	s7,0
    80000500:	00000d13          	li	s10,0
    80000504:	08010793          	addi	a5,sp,128
    80000508:	009784b3          	add	s1,a5,s1
    8000050c:	01810c93          	addi	s9,sp,24
    80000510:	ee0b80e3          	beqz	s7,800003f0 <vsnprintf_internal+0x21c>
    80000514:	02012b83          	lw	s7,32(sp)
    80000518:	01810c93          	addi	s9,sp,24
    8000051c:	01703bb3          	snez	s7,s7
    80000520:	ed6d4ae3          	blt	s10,s6,800003f4 <vsnprintf_internal+0x220>
    80000524:	000b8b13          	mv	s6,s7
    80000528:	00000813          	li	a6,0
    8000052c:	ed1ff06f          	j	800003fc <vsnprintf_internal+0x228>
    80000530:	008a0c93          	addi	s9,s4,8
    80000534:	000a3483          	ld	s1,0(s4)
    80000538:	500b0a63          	beqz	s6,80000a4c <vsnprintf_internal+0x878>
    8000053c:	fffb0b9b          	addiw	s7,s6,-1
    80000540:	000c8a13          	mv	s4,s9
    80000544:	00000d13          	li	s10,0
    80000548:	018b5463          	ble	s8,s6,80000550 <vsnprintf_internal+0x37c>
    8000054c:	416c0d3b          	subw	s10,s8,s6
    80000550:	01812783          	lw	a5,24(sp)
    80000554:	3a078663          	beqz	a5,80000900 <vsnprintf_internal+0x72c>
    80000558:	01810c93          	addi	s9,sp,24
    8000055c:	020b0a63          	beqz	s6,80000590 <vsnprintf_internal+0x3bc>
    80000560:	020b9b13          	slli	s6,s7,0x20
    80000564:	020b5b13          	srli	s6,s6,0x20
    80000568:	001b0b13          	addi	s6,s6,1
    8000056c:	01648b33          	add	s6,s1,s6
    80000570:	00148493          	addi	s1,s1,1
    80000574:	fff4c503          	lbu	a0,-1(s1)
    80000578:	000c8613          	mv	a2,s9
    8000057c:	00100593          	li	a1,1
    80000580:	bb9ff0ef          	jal	ra,80000138 <__putch>
    80000584:	fe9b16e3          	bne	s6,s1,80000570 <vsnprintf_internal+0x39c>
    80000588:	01812783          	lw	a5,24(sp)
    8000058c:	ca078ee3          	beqz	a5,80000248 <vsnprintf_internal+0x74>
    80000590:	01c14503          	lbu	a0,28(sp)
    80000594:	000c8613          	mv	a2,s9
    80000598:	000d0593          	mv	a1,s10
    8000059c:	b9dff0ef          	jal	ra,80000138 <__putch>
    800005a0:	ca9ff06f          	j	80000248 <vsnprintf_internal+0x74>
    800005a4:	000a3483          	ld	s1,0(s4)
    800005a8:	008a0a13          	addi	s4,s4,8
    800005ac:	46049c63          	bnez	s1,80000a24 <vsnprintf_internal+0x850>
    800005b0:	02800513          	li	a0,40
    800005b4:	00000497          	auipc	s1,0x0
    800005b8:	7a448493          	addi	s1,s1,1956 # 80000d58 <__am_mainargs+0x16b>
    800005bc:	01810c93          	addi	s9,sp,24
    800005c0:	00000b17          	auipc	s6,0x0
    800005c4:	79db0b13          	addi	s6,s6,1949 # 80000d5d <__am_mainargs+0x170>
    800005c8:	0080006f          	j	800005d0 <vsnprintf_internal+0x3fc>
    800005cc:	0004c503          	lbu	a0,0(s1)
    800005d0:	00148493          	addi	s1,s1,1
    800005d4:	000c8613          	mv	a2,s9
    800005d8:	00100593          	li	a1,1
    800005dc:	b5dff0ef          	jal	ra,80000138 <__putch>
    800005e0:	ff6496e3          	bne	s1,s6,800005cc <vsnprintf_internal+0x3f8>
    800005e4:	c65ff06f          	j	80000248 <vsnprintf_internal+0x74>
    800005e8:	00200793          	li	a5,2
    800005ec:	4cfb8e63          	beq	s7,a5,80000ac8 <vsnprintf_internal+0x8f4>
    800005f0:	2d77dc63          	ble	s7,a5,800008c8 <vsnprintf_internal+0x6f4>
    800005f4:	00300793          	li	a5,3
    800005f8:	32fb8263          	beq	s7,a5,8000091c <vsnprintf_internal+0x748>
    800005fc:	00400793          	li	a5,4
    80000600:	00800713          	li	a4,8
    80000604:	ecfb88e3          	beq	s7,a5,800004d4 <vsnprintf_internal+0x300>
    80000608:	000a2783          	lw	a5,0(s4)
    8000060c:	008a0a13          	addi	s4,s4,8
    80000610:	0077f713          	andi	a4,a5,7
    80000614:	00e98733          	add	a4,s3,a4
    80000618:	00074603          	lbu	a2,0(a4)
    8000061c:	06010fa3          	sb	zero,127(sp)
    80000620:	07f10713          	addi	a4,sp,127
    80000624:	00700593          	li	a1,7
    80000628:	0140006f          	j	8000063c <vsnprintf_internal+0x468>
    8000062c:	0076f793          	andi	a5,a3,7
    80000630:	00f987b3          	add	a5,s3,a5
    80000634:	0007c603          	lbu	a2,0(a5)
    80000638:	0006879b          	sext.w	a5,a3
    8000063c:	fff70713          	addi	a4,a4,-1
    80000640:	00c70023          	sb	a2,0(a4)
    80000644:	0037d69b          	srliw	a3,a5,0x3
    80000648:	fef5e2e3          	bltu	a1,a5,8000062c <vsnprintf_internal+0x458>
    8000064c:	08010793          	addi	a5,sp,128
    80000650:	40e7873b          	subw	a4,a5,a4
    80000654:	fff70d1b          	addiw	s10,a4,-1
    80000658:	ffe7079b          	addiw	a5,a4,-2
    8000065c:	fffd4493          	not	s1,s10
    80000660:	00f13023          	sd	a5,0(sp)
    80000664:	01810c93          	addi	s9,sp,24
    80000668:	d7dff06f          	j	800003e4 <vsnprintf_internal+0x210>
    8000066c:	00044703          	lbu	a4,0(s0)
    80000670:	00140413          	addi	s0,s0,1
    80000674:	4dc70463          	beq	a4,t3,80000b3c <vsnprintf_internal+0x968>
    80000678:	00300b93          	li	s7,3
    8000067c:	c91ff06f          	j	8000030c <vsnprintf_internal+0x138>
    80000680:	02a12023          	sw	a0,32(sp)
    80000684:	03110223          	sb	a7,36(sp)
    80000688:	00040793          	mv	a5,s0
    8000068c:	c79ff06f          	j	80000304 <vsnprintf_internal+0x130>
    80000690:	01810613          	addi	a2,sp,24
    80000694:	00100593          	li	a1,1
    80000698:	02500513          	li	a0,37
    8000069c:	a9dff0ef          	jal	ra,80000138 <__putch>
    800006a0:	ba9ff06f          	j	80000248 <vsnprintf_internal+0x74>
    800006a4:	02012783          	lw	a5,32(sp)
    800006a8:	2c079863          	bnez	a5,80000978 <vsnprintf_internal+0x7a4>
    800006ac:	02a12023          	sw	a0,32(sp)
    800006b0:	03010223          	sb	a6,36(sp)
    800006b4:	00040793          	mv	a5,s0
    800006b8:	c4dff06f          	j	80000304 <vsnprintf_internal+0x130>
    800006bc:	00044703          	lbu	a4,0(s0)
    800006c0:	00140413          	addi	s0,s0,1
    800006c4:	fd07079b          	addiw	a5,a4,-48
    800006c8:	0ff7f793          	andi	a5,a5,255
    800006cc:	02f66663          	bltu	a2,a5,800006f8 <vsnprintf_internal+0x524>
    800006d0:	002b179b          	slliw	a5,s6,0x2
    800006d4:	01678b3b          	addw	s6,a5,s6
    800006d8:	001b1b1b          	slliw	s6,s6,0x1
    800006dc:	00140413          	addi	s0,s0,1
    800006e0:	00eb0b3b          	addw	s6,s6,a4
    800006e4:	fff44703          	lbu	a4,-1(s0)
    800006e8:	fd0b0b1b          	addiw	s6,s6,-48
    800006ec:	fd07079b          	addiw	a5,a4,-48
    800006f0:	0ff7f793          	andi	a5,a5,255
    800006f4:	fcf67ee3          	bleu	a5,a2,800006d0 <vsnprintf_internal+0x4fc>
    800006f8:	01010e23          	sb	a6,28(sp)
    800006fc:	c11ff06f          	j	8000030c <vsnprintf_internal+0x138>
    80000700:	00200793          	li	a5,2
    80000704:	38fb8a63          	beq	s7,a5,80000a98 <vsnprintf_internal+0x8c4>
    80000708:	1977d463          	ble	s7,a5,80000890 <vsnprintf_internal+0x6bc>
    8000070c:	00300793          	li	a5,3
    80000710:	00fb8663          	beq	s7,a5,8000071c <vsnprintf_internal+0x548>
    80000714:	00400793          	li	a5,4
    80000718:	34fb9263          	bne	s7,a5,80000a5c <vsnprintf_internal+0x888>
    8000071c:	000a3783          	ld	a5,0(s4)
    80000720:	008a0a13          	addi	s4,s4,8
    80000724:	2607c463          	bltz	a5,8000098c <vsnprintf_internal+0x7b8>
    80000728:	00100b93          	li	s7,1
    8000072c:	06010fa3          	sb	zero,127(sp)
    80000730:	07f10693          	addi	a3,sp,127
    80000734:	00a00613          	li	a2,10
    80000738:	00900513          	li	a0,9
    8000073c:	0080006f          	j	80000744 <vsnprintf_internal+0x570>
    80000740:	00058793          	mv	a5,a1
    80000744:	02c7f733          	remu	a4,a5,a2
    80000748:	fff68693          	addi	a3,a3,-1
    8000074c:	00e98733          	add	a4,s3,a4
    80000750:	00074703          	lbu	a4,0(a4)
    80000754:	02c7d5b3          	divu	a1,a5,a2
    80000758:	00e68023          	sb	a4,0(a3)
    8000075c:	fef562e3          	bltu	a0,a5,80000740 <vsnprintf_internal+0x56c>
    80000760:	08010793          	addi	a5,sp,128
    80000764:	40d786bb          	subw	a3,a5,a3
    80000768:	fff68d1b          	addiw	s10,a3,-1
    8000076c:	ffe6879b          	addiw	a5,a3,-2
    80000770:	fffd4493          	not	s1,s10
    80000774:	00f13023          	sd	a5,0(sp)
    80000778:	d8dff06f          	j	80000504 <vsnprintf_internal+0x330>
    8000077c:	00a12c23          	sw	a0,24(sp)
    80000780:	01010e23          	sb	a6,28(sp)
    80000784:	00040793          	mv	a5,s0
    80000788:	b7dff06f          	j	80000304 <vsnprintf_internal+0x130>
    8000078c:	00044703          	lbu	a4,0(s0)
    80000790:	00140413          	addi	s0,s0,1
    80000794:	3a670a63          	beq	a4,t1,80000b48 <vsnprintf_internal+0x974>
    80000798:	00200b93          	li	s7,2
    8000079c:	b71ff06f          	j	8000030c <vsnprintf_internal+0x138>
    800007a0:	000a2783          	lw	a5,0(s4)
    800007a4:	00000b93          	li	s7,0
    800007a8:	008a0a13          	addi	s4,s4,8
    800007ac:	04f10023          	sb	a5,64(sp)
    800007b0:	04010493          	addi	s1,sp,64
    800007b4:	00100b13          	li	s6,1
    800007b8:	d8dff06f          	j	80000544 <vsnprintf_internal+0x370>
    800007bc:	00000513          	li	a0,0
    800007c0:	a71ff06f          	j	80000230 <vsnprintf_internal+0x5c>
    800007c4:	01c14503          	lbu	a0,28(sp)
    800007c8:	000c8613          	mv	a2,s9
    800007cc:	000d8593          	mv	a1,s11
    800007d0:	01013423          	sd	a6,8(sp)
    800007d4:	965ff0ef          	jal	ra,80000138 <__putch>
    800007d8:	00813803          	ld	a6,8(sp)
    800007dc:	c40b88e3          	beqz	s7,8000042c <vsnprintf_internal+0x258>
    800007e0:	02414503          	lbu	a0,36(sp)
    800007e4:	000c8613          	mv	a2,s9
    800007e8:	00100593          	li	a1,1
    800007ec:	01013423          	sd	a6,8(sp)
    800007f0:	949ff0ef          	jal	ra,80000138 <__putch>
    800007f4:	01813683          	ld	a3,24(sp)
    800007f8:	fff00713          	li	a4,-1
    800007fc:	01875713          	srli	a4,a4,0x18
    80000800:	00e6f6b3          	and	a3,a3,a4
    80000804:	00300713          	li	a4,3
    80000808:	02471713          	slli	a4,a4,0x24
    8000080c:	00813803          	ld	a6,8(sp)
    80000810:	c2e69ce3          	bne	a3,a4,80000448 <vsnprintf_internal+0x274>
    80000814:	01c14503          	lbu	a0,28(sp)
    80000818:	000c8613          	mv	a2,s9
    8000081c:	000d8593          	mv	a1,s11
    80000820:	01013423          	sd	a6,8(sp)
    80000824:	915ff0ef          	jal	ra,80000138 <__putch>
    80000828:	00813803          	ld	a6,8(sp)
    8000082c:	c1dff06f          	j	80000448 <vsnprintf_internal+0x274>
    80000830:	00100793          	li	a5,1
    80000834:	28fb9663          	bne	s7,a5,80000ac0 <vsnprintf_internal+0x8ec>
    80000838:	000a4703          	lbu	a4,0(s4)
    8000083c:	06010fa3          	sb	zero,127(sp)
    80000840:	07f10693          	addi	a3,sp,127
    80000844:	00f00593          	li	a1,15
    80000848:	0080006f          	j	80000850 <vsnprintf_internal+0x67c>
    8000084c:	00060713          	mv	a4,a2
    80000850:	00f77793          	andi	a5,a4,15
    80000854:	00f987b3          	add	a5,s3,a5
    80000858:	0007c783          	lbu	a5,0(a5)
    8000085c:	fff68693          	addi	a3,a3,-1
    80000860:	0047561b          	srliw	a2,a4,0x4
    80000864:	00f68023          	sb	a5,0(a3)
    80000868:	fee5e2e3          	bltu	a1,a4,8000084c <vsnprintf_internal+0x678>
    8000086c:	08010793          	addi	a5,sp,128
    80000870:	40d786bb          	subw	a3,a5,a3
    80000874:	fff68d1b          	addiw	s10,a3,-1
    80000878:	ffe6879b          	addiw	a5,a3,-2
    8000087c:	fffd4493          	not	s1,s10
    80000880:	00f13023          	sd	a5,0(sp)
    80000884:	00050a13          	mv	s4,a0
    80000888:	01810c93          	addi	s9,sp,24
    8000088c:	b59ff06f          	j	800003e4 <vsnprintf_internal+0x210>
    80000890:	00100793          	li	a5,1
    80000894:	1cfb9463          	bne	s7,a5,80000a5c <vsnprintf_internal+0x888>
    80000898:	000a2703          	lw	a4,0(s4)
    8000089c:	008a0793          	addi	a5,s4,8
    800008a0:	0187169b          	slliw	a3,a4,0x18
    800008a4:	4186d69b          	sraiw	a3,a3,0x18
    800008a8:	0e06ce63          	bltz	a3,800009a4 <vsnprintf_internal+0x7d0>
    800008ac:	0ff77713          	andi	a4,a4,255
    800008b0:	00a00693          	li	a3,10
    800008b4:	02d776bb          	remuw	a3,a4,a3
    800008b8:	00078a13          	mv	s4,a5
    800008bc:	00d987b3          	add	a5,s3,a3
    800008c0:	0007c783          	lbu	a5,0(a5)
    800008c4:	1100006f          	j	800009d4 <vsnprintf_internal+0x800>
    800008c8:	00100793          	li	a5,1
    800008cc:	d2fb9ee3          	bne	s7,a5,80000608 <vsnprintf_internal+0x434>
    800008d0:	000a4783          	lbu	a5,0(s4)
    800008d4:	008a0a13          	addi	s4,s4,8
    800008d8:	0077f713          	andi	a4,a5,7
    800008dc:	00e98733          	add	a4,s3,a4
    800008e0:	00074603          	lbu	a2,0(a4)
    800008e4:	d39ff06f          	j	8000061c <vsnprintf_internal+0x448>
    800008e8:	00100793          	li	a5,1
    800008ec:	1efb9c63          	bne	s7,a5,80000ae4 <vsnprintf_internal+0x910>
    800008f0:	008a0793          	addi	a5,s4,8
    800008f4:	000a4703          	lbu	a4,0(s4)
    800008f8:	00000b93          	li	s7,0
    800008fc:	fb5ff06f          	j	800008b0 <vsnprintf_internal+0x6dc>
    80000900:	01c14503          	lbu	a0,28(sp)
    80000904:	01810c93          	addi	s9,sp,24
    80000908:	000c8613          	mv	a2,s9
    8000090c:	000d0593          	mv	a1,s10
    80000910:	829ff0ef          	jal	ra,80000138 <__putch>
    80000914:	c40b16e3          	bnez	s6,80000560 <vsnprintf_internal+0x38c>
    80000918:	c71ff06f          	j	80000588 <vsnprintf_internal+0x3b4>
    8000091c:	000a3783          	ld	a5,0(s4)
    80000920:	008a0513          	addi	a0,s4,8
    80000924:	06010fa3          	sb	zero,127(sp)
    80000928:	07f10693          	addi	a3,sp,127
    8000092c:	00700593          	li	a1,7
    80000930:	0080006f          	j	80000938 <vsnprintf_internal+0x764>
    80000934:	00060793          	mv	a5,a2
    80000938:	0077f713          	andi	a4,a5,7
    8000093c:	00e98733          	add	a4,s3,a4
    80000940:	00074703          	lbu	a4,0(a4)
    80000944:	fff68693          	addi	a3,a3,-1
    80000948:	0037d613          	srli	a2,a5,0x3
    8000094c:	00e68023          	sb	a4,0(a3)
    80000950:	fef5e2e3          	bltu	a1,a5,80000934 <vsnprintf_internal+0x760>
    80000954:	08010793          	addi	a5,sp,128
    80000958:	40d786bb          	subw	a3,a5,a3
    8000095c:	fff68d1b          	addiw	s10,a3,-1
    80000960:	ffe6879b          	addiw	a5,a3,-2
    80000964:	fffd4493          	not	s1,s10
    80000968:	00f13023          	sd	a5,0(sp)
    8000096c:	00050a13          	mv	s4,a0
    80000970:	01810c93          	addi	s9,sp,24
    80000974:	a71ff06f          	j	800003e4 <vsnprintf_internal+0x210>
    80000978:	02414783          	lbu	a5,36(sp)
    8000097c:	9fe786e3          	beq	a5,t5,80000368 <vsnprintf_internal+0x194>
    80000980:	02a12023          	sw	a0,32(sp)
    80000984:	03010223          	sb	a6,36(sp)
    80000988:	d2dff06f          	j	800006b4 <vsnprintf_internal+0x4e0>
    8000098c:	02d00713          	li	a4,45
    80000990:	02e10223          	sb	a4,36(sp)
    80000994:	00100713          	li	a4,1
    80000998:	02e12023          	sw	a4,32(sp)
    8000099c:	40f007b3          	neg	a5,a5
    800009a0:	d89ff06f          	j	80000728 <vsnprintf_internal+0x554>
    800009a4:	fff74713          	not	a4,a4
    800009a8:	0ff77713          	andi	a4,a4,255
    800009ac:	02d00693          	li	a3,45
    800009b0:	02d10223          	sb	a3,36(sp)
    800009b4:	03712023          	sw	s7,32(sp)
    800009b8:	00170713          	addi	a4,a4,1
    800009bc:	00078a13          	mv	s4,a5
    800009c0:	00a00793          	li	a5,10
    800009c4:	02f777bb          	remuw	a5,a4,a5
    800009c8:	00100b93          	li	s7,1
    800009cc:	00f987b3          	add	a5,s3,a5
    800009d0:	0007c783          	lbu	a5,0(a5)
    800009d4:	06010fa3          	sb	zero,127(sp)
    800009d8:	07f10693          	addi	a3,sp,127
    800009dc:	00a00613          	li	a2,10
    800009e0:	00900593          	li	a1,9
    800009e4:	0140006f          	j	800009f8 <vsnprintf_internal+0x824>
    800009e8:	0007871b          	sext.w	a4,a5
    800009ec:	02c7f7bb          	remuw	a5,a5,a2
    800009f0:	00f987b3          	add	a5,s3,a5
    800009f4:	0007c783          	lbu	a5,0(a5)
    800009f8:	fff68693          	addi	a3,a3,-1
    800009fc:	00f68023          	sb	a5,0(a3)
    80000a00:	02c757bb          	divuw	a5,a4,a2
    80000a04:	fee5e2e3          	bltu	a1,a4,800009e8 <vsnprintf_internal+0x814>
    80000a08:	08010793          	addi	a5,sp,128
    80000a0c:	40d786bb          	subw	a3,a5,a3
    80000a10:	fff68d1b          	addiw	s10,a3,-1
    80000a14:	ffe6879b          	addiw	a5,a3,-2
    80000a18:	fffd4493          	not	s1,s10
    80000a1c:	00f13023          	sd	a5,0(sp)
    80000a20:	ae5ff06f          	j	80000504 <vsnprintf_internal+0x330>
    80000a24:	01810c93          	addi	s9,sp,24
    80000a28:	000c8613          	mv	a2,s9
    80000a2c:	00100593          	li	a1,1
    80000a30:	03000513          	li	a0,48
    80000a34:	f04ff0ef          	jal	ra,80000138 <__putch>
    80000a38:	000c8613          	mv	a2,s9
    80000a3c:	00100593          	li	a1,1
    80000a40:	07800513          	li	a0,120
    80000a44:	ef4ff0ef          	jal	ra,80000138 <__putch>
    80000a48:	955ff06f          	j	8000039c <vsnprintf_internal+0x1c8>
    80000a4c:	00048513          	mv	a0,s1
    80000a50:	158000ef          	jal	ra,80000ba8 <strlen>
    80000a54:	00050b1b          	sext.w	s6,a0
    80000a58:	ae5ff06f          	j	8000053c <vsnprintf_internal+0x368>
    80000a5c:	000a2783          	lw	a5,0(s4)
    80000a60:	008a0a13          	addi	s4,s4,8
    80000a64:	0007871b          	sext.w	a4,a5
    80000a68:	f407dce3          	bgez	a5,800009c0 <vsnprintf_internal+0x7ec>
    80000a6c:	40e0073b          	negw	a4,a4
    80000a70:	00a00793          	li	a5,10
    80000a74:	02f777bb          	remuw	a5,a4,a5
    80000a78:	02d00693          	li	a3,45
    80000a7c:	02d10223          	sb	a3,36(sp)
    80000a80:	00100693          	li	a3,1
    80000a84:	02d12023          	sw	a3,32(sp)
    80000a88:	00100b93          	li	s7,1
    80000a8c:	00f987b3          	add	a5,s3,a5
    80000a90:	0007c783          	lbu	a5,0(a5)
    80000a94:	f41ff06f          	j	800009d4 <vsnprintf_internal+0x800>
    80000a98:	000a2703          	lw	a4,0(s4)
    80000a9c:	008a0793          	addi	a5,s4,8
    80000aa0:	03071693          	slli	a3,a4,0x30
    80000aa4:	0606c863          	bltz	a3,80000b14 <vsnprintf_internal+0x940>
    80000aa8:	03071713          	slli	a4,a4,0x30
    80000aac:	03075713          	srli	a4,a4,0x30
    80000ab0:	00100b93          	li	s7,1
    80000ab4:	dfdff06f          	j	800008b0 <vsnprintf_internal+0x6dc>
    80000ab8:	000a5703          	lhu	a4,0(s4)
    80000abc:	d81ff06f          	j	8000083c <vsnprintf_internal+0x668>
    80000ac0:	000a2703          	lw	a4,0(s4)
    80000ac4:	d79ff06f          	j	8000083c <vsnprintf_internal+0x668>
    80000ac8:	000a5783          	lhu	a5,0(s4)
    80000acc:	008a0a13          	addi	s4,s4,8
    80000ad0:	e09ff06f          	j	800008d8 <vsnprintf_internal+0x704>
    80000ad4:	008a0793          	addi	a5,s4,8
    80000ad8:	000a5703          	lhu	a4,0(s4)
    80000adc:	00000b93          	li	s7,0
    80000ae0:	dd1ff06f          	j	800008b0 <vsnprintf_internal+0x6dc>
    80000ae4:	000a2703          	lw	a4,0(s4)
    80000ae8:	00a00793          	li	a5,10
    80000aec:	008a0a13          	addi	s4,s4,8
    80000af0:	02f777bb          	remuw	a5,a4,a5
    80000af4:	00000b93          	li	s7,0
    80000af8:	00f987b3          	add	a5,s3,a5
    80000afc:	0007c783          	lbu	a5,0(a5)
    80000b00:	ed5ff06f          	j	800009d4 <vsnprintf_internal+0x800>
    80000b04:	000a3783          	ld	a5,0(s4)
    80000b08:	00000b93          	li	s7,0
    80000b0c:	008a0a13          	addi	s4,s4,8
    80000b10:	c1dff06f          	j	8000072c <vsnprintf_internal+0x558>
    80000b14:	fff74713          	not	a4,a4
    80000b18:	02d00693          	li	a3,45
    80000b1c:	0107171b          	slliw	a4,a4,0x10
    80000b20:	0107571b          	srliw	a4,a4,0x10
    80000b24:	02d10223          	sb	a3,36(sp)
    80000b28:	00100693          	li	a3,1
    80000b2c:	02d12023          	sw	a3,32(sp)
    80000b30:	00170713          	addi	a4,a4,1
    80000b34:	00078a13          	mv	s4,a5
    80000b38:	e89ff06f          	j	800009c0 <vsnprintf_internal+0x7ec>
    80000b3c:	00400b93          	li	s7,4
    80000b40:	00040793          	mv	a5,s0
    80000b44:	fc0ff06f          	j	80000304 <vsnprintf_internal+0x130>
    80000b48:	00100b93          	li	s7,1
    80000b4c:	00040793          	mv	a5,s0
    80000b50:	fb4ff06f          	j	80000304 <vsnprintf_internal+0x130>
    80000b54:	00000b93          	li	s7,0
    80000b58:	bd5ff06f          	j	8000072c <vsnprintf_internal+0x558>

Disassembly of section .text.printf:

0000000080000b5c <printf>:
    80000b5c:	fa010113          	addi	sp,sp,-96
    80000b60:	02810313          	addi	t1,sp,40
    80000b64:	02b13423          	sd	a1,40(sp)
    80000b68:	02c13823          	sd	a2,48(sp)
    80000b6c:	02d13c23          	sd	a3,56(sp)
    80000b70:	00050613          	mv	a2,a0
    80000b74:	00030693          	mv	a3,t1
    80000b78:	00000593          	li	a1,0
    80000b7c:	00000513          	li	a0,0
    80000b80:	00113c23          	sd	ra,24(sp)
    80000b84:	04e13023          	sd	a4,64(sp)
    80000b88:	04f13423          	sd	a5,72(sp)
    80000b8c:	05013823          	sd	a6,80(sp)
    80000b90:	05113c23          	sd	a7,88(sp)
    80000b94:	00613423          	sd	t1,8(sp)
    80000b98:	e3cff0ef          	jal	ra,800001d4 <vsnprintf_internal>
    80000b9c:	01813083          	ld	ra,24(sp)
    80000ba0:	06010113          	addi	sp,sp,96
    80000ba4:	00008067          	ret

Disassembly of section .text.strlen:

0000000080000ba8 <strlen>:
    80000ba8:	00054783          	lbu	a5,0(a0)
    80000bac:	02078063          	beqz	a5,80000bcc <strlen+0x24>
    80000bb0:	00000793          	li	a5,0
    80000bb4:	00178793          	addi	a5,a5,1
    80000bb8:	00f50733          	add	a4,a0,a5
    80000bbc:	00074703          	lbu	a4,0(a4)
    80000bc0:	fe071ae3          	bnez	a4,80000bb4 <strlen+0xc>
    80000bc4:	00078513          	mv	a0,a5
    80000bc8:	00008067          	ret
    80000bcc:	00000793          	li	a5,0
    80000bd0:	00078513          	mv	a0,a5
    80000bd4:	00008067          	ret
