
/home/zzy/Desktop/ics2019/nexus-am/tests/cputest/build/load-store-riscv32-nemu.elf:     file format elf32-littleriscv


Disassembly of section .text:

80100000 <_start>:
80100000:	00000413          	li	s0,0
80100004:	00009117          	auipc	sp,0x9
80100008:	ffc10113          	addi	sp,sp,-4 # 80109000 <_end>
8010000c:	1b0000ef          	jal	ra,801001bc <_trm_init>

80100010 <nemu_assert>:
80100010:	00050463          	beqz	a0,80100018 <nemu_assert+0x8>
80100014:	00008067          	ret
80100018:	ff010113          	addi	sp,sp,-16
8010001c:	00100513          	li	a0,1
80100020:	00112623          	sw	ra,12(sp)
80100024:	18c000ef          	jal	ra,801001b0 <_halt>

Disassembly of section .text.startup:

80100028 <main>:
80100028:	fe010113          	addi	sp,sp,-32
8010002c:	00812c23          	sw	s0,24(sp)
80100030:	80100437          	lui	s0,0x80100
80100034:	00912a23          	sw	s1,20(sp)
80100038:	1dc40493          	addi	s1,s0,476 # 801001dc <_heap_end+0xf81001dc>
8010003c:	01312623          	sw	s3,12(sp)
80100040:	01048993          	addi	s3,s1,16
80100044:	01212823          	sw	s2,16(sp)
80100048:	01412423          	sw	s4,8(sp)
8010004c:	1dc40913          	addi	s2,s0,476
80100050:	00112e23          	sw	ra,28(sp)
80100054:	00098a13          	mv	s4,s3
80100058:	1dc40413          	addi	s0,s0,476
8010005c:	00041503          	lh	a0,0(s0)
80100060:	0009a783          	lw	a5,0(s3)
80100064:	00240413          	addi	s0,s0,2
80100068:	00498993          	addi	s3,s3,4
8010006c:	40f50533          	sub	a0,a0,a5
80100070:	00153513          	seqz	a0,a0
80100074:	f9dff0ef          	jal	ra,80100010 <nemu_assert>
80100078:	ff4412e3          	bne	s0,s4,8010005c <main+0x34>
8010007c:	03090413          	addi	s0,s2,48
80100080:	0004d503          	lhu	a0,0(s1)
80100084:	00042783          	lw	a5,0(s0)
80100088:	00248493          	addi	s1,s1,2
8010008c:	00440413          	addi	s0,s0,4
80100090:	40f50533          	sub	a0,a0,a5
80100094:	00153513          	seqz	a0,a0
80100098:	f79ff0ef          	jal	ra,80100010 <nemu_assert>
8010009c:	ff4492e3          	bne	s1,s4,80100080 <main+0x58>
801000a0:	00294703          	lbu	a4,2(s2)
801000a4:	00194683          	lbu	a3,1(s2)
801000a8:	00394783          	lbu	a5,3(s2)
801000ac:	00494503          	lbu	a0,4(s2)
801000b0:	00871713          	slli	a4,a4,0x8
801000b4:	00d76733          	or	a4,a4,a3
801000b8:	01079793          	slli	a5,a5,0x10
801000bc:	05092683          	lw	a3,80(s2)
801000c0:	00e7e7b3          	or	a5,a5,a4
801000c4:	01851513          	slli	a0,a0,0x18
801000c8:	00f56533          	or	a0,a0,a5
801000cc:	40d50533          	sub	a0,a0,a3
801000d0:	00153513          	seqz	a0,a0
801000d4:	f3dff0ef          	jal	ra,80100010 <nemu_assert>
801000d8:	00694703          	lbu	a4,6(s2)
801000dc:	00594683          	lbu	a3,5(s2)
801000e0:	00794783          	lbu	a5,7(s2)
801000e4:	00894503          	lbu	a0,8(s2)
801000e8:	00871713          	slli	a4,a4,0x8
801000ec:	00d76733          	or	a4,a4,a3
801000f0:	01079793          	slli	a5,a5,0x10
801000f4:	05492683          	lw	a3,84(s2)
801000f8:	00e7e7b3          	or	a5,a5,a4
801000fc:	01851513          	slli	a0,a0,0x18
80100100:	00f56533          	or	a0,a0,a5
80100104:	40d50533          	sub	a0,a0,a3
80100108:	00153513          	seqz	a0,a0
8010010c:	f05ff0ef          	jal	ra,80100010 <nemu_assert>
80100110:	00a94703          	lbu	a4,10(s2)
80100114:	00994683          	lbu	a3,9(s2)
80100118:	00b94783          	lbu	a5,11(s2)
8010011c:	00c94503          	lbu	a0,12(s2)
80100120:	00871713          	slli	a4,a4,0x8
80100124:	00d76733          	or	a4,a4,a3
80100128:	01079793          	slli	a5,a5,0x10
8010012c:	05892683          	lw	a3,88(s2)
80100130:	00e7e7b3          	or	a5,a5,a4
80100134:	01851513          	slli	a0,a0,0x18
80100138:	00f56533          	or	a0,a0,a5
8010013c:	40d50533          	sub	a0,a0,a3
80100140:	00153513          	seqz	a0,a0
80100144:	ecdff0ef          	jal	ra,80100010 <nemu_assert>
80100148:	06090493          	addi	s1,s2,96
8010014c:	00100413          	li	s0,1
80100150:	00100a13          	li	s4,1
80100154:	01100993          	li	s3,17
80100158:	008a17b3          	sll	a5,s4,s0
8010015c:	0004a503          	lw	a0,0(s1)
80100160:	fff7c793          	not	a5,a5
80100164:	01079793          	slli	a5,a5,0x10
80100168:	0107d793          	srli	a5,a5,0x10
8010016c:	00890733          	add	a4,s2,s0
80100170:	40f50533          	sub	a0,a0,a5
80100174:	00240413          	addi	s0,s0,2
80100178:	00153513          	seqz	a0,a0
8010017c:	fef71fa3          	sh	a5,-1(a4)
80100180:	00448493          	addi	s1,s1,4
80100184:	e8dff0ef          	jal	ra,80100010 <nemu_assert>
80100188:	fd3418e3          	bne	s0,s3,80100158 <main+0x130>
8010018c:	01c12083          	lw	ra,28(sp)
80100190:	01812403          	lw	s0,24(sp)
80100194:	01412483          	lw	s1,20(sp)
80100198:	01012903          	lw	s2,16(sp)
8010019c:	00c12983          	lw	s3,12(sp)
801001a0:	00812a03          	lw	s4,8(sp)
801001a4:	00000513          	li	a0,0
801001a8:	02010113          	addi	sp,sp,32
801001ac:	00008067          	ret

Disassembly of section .text._halt:

801001b0 <_halt>:
801001b0:	00050513          	mv	a0,a0
801001b4:	0000006b          	0x6b
801001b8:	0000006f          	j	801001b8 <_halt+0x8>

Disassembly of section .text._trm_init:

801001bc <_trm_init>:
801001bc:	80000537          	lui	a0,0x80000
801001c0:	ff010113          	addi	sp,sp,-16
801001c4:	00050513          	mv	a0,a0
801001c8:	00112623          	sw	ra,12(sp)
801001cc:	e5dff0ef          	jal	ra,80100028 <_etext>
801001d0:	00050513          	mv	a0,a0
801001d4:	0000006b          	0x6b
801001d8:	0000006f          	j	801001d8 <_trm_init+0x1c>
