
/home/zzy/Desktop/ics2019/nexus-am/tests/cputest/build/matrix-mul-riscv32-nemu.elf:     file format elf32-littleriscv


Disassembly of section .text:

80100000 <_start>:
80100000:	00000413          	li	s0,0
80100004:	00009117          	auipc	sp,0x9
80100008:	ffc10113          	addi	sp,sp,-4 # 80109000 <_end>
8010000c:	128000ef          	jal	ra,80100134 <_trm_init>

80100010 <nemu_assert>:
80100010:	00050463          	beqz	a0,80100018 <nemu_assert+0x8>
80100014:	00008067          	ret
80100018:	ff010113          	addi	sp,sp,-16
8010001c:	00100513          	li	a0,1
80100020:	00112623          	sw	ra,12(sp)
80100024:	104000ef          	jal	ra,80100128 <_halt>

Disassembly of section .text.startup:

80100028 <main>:
80100028:	fd010113          	addi	sp,sp,-48
8010002c:	01412c23          	sw	s4,24(sp)
80100030:	80100a37          	lui	s4,0x80100
80100034:	154a0a13          	addi	s4,s4,340 # 80100154 <_heap_end+0xf8100154>
80100038:	03212023          	sw	s2,32(sp)
8010003c:	01312e23          	sw	s3,28(sp)
80100040:	01512a23          	sw	s5,20(sp)
80100044:	801009b7          	lui	s3,0x80100
80100048:	80100ab7          	lui	s5,0x80100
8010004c:	80100937          	lui	s2,0x80100
80100050:	02812423          	sw	s0,40(sp)
80100054:	02912223          	sw	s1,36(sp)
80100058:	320a0413          	addi	s0,s4,800
8010005c:	02112623          	sw	ra,44(sp)
80100060:	01612823          	sw	s6,16(sp)
80100064:	01712623          	sw	s7,12(sp)
80100068:	19000493          	li	s1,400
8010006c:	60498993          	addi	s3,s3,1540 # 80100604 <_heap_end+0xf8100604>
80100070:	4b0a0a13          	addi	s4,s4,1200
80100074:	2e4a8a93          	addi	s5,s5,740 # 801002e4 <_heap_end+0xf81002e4>
80100078:	30c90913          	addi	s2,s2,780 # 8010030c <_heap_end+0xf810030c>
8010007c:	000a8b13          	mv	s6,s5
80100080:	00098b93          	mv	s7,s3
80100084:	e70b0793          	addi	a5,s6,-400
80100088:	00040693          	mv	a3,s0
8010008c:	00000513          	li	a0,0
80100090:	0006a703          	lw	a4,0(a3)
80100094:	0007a603          	lw	a2,0(a5)
80100098:	02878793          	addi	a5,a5,40
8010009c:	00468693          	addi	a3,a3,4
801000a0:	02c70733          	mul	a4,a4,a2
801000a4:	00e50533          	add	a0,a0,a4
801000a8:	fefb14e3          	bne	s6,a5,80100090 <main+0x68>
801000ac:	016487b3          	add	a5,s1,s6
801000b0:	e707a783          	lw	a5,-400(a5)
801000b4:	00aba023          	sw	a0,0(s7)
801000b8:	004b0b13          	addi	s6,s6,4
801000bc:	40a78533          	sub	a0,a5,a0
801000c0:	00153513          	seqz	a0,a0
801000c4:	f4dff0ef          	jal	ra,80100010 <nemu_assert>
801000c8:	00100513          	li	a0,1
801000cc:	f45ff0ef          	jal	ra,80100010 <nemu_assert>
801000d0:	004b8b93          	addi	s7,s7,4
801000d4:	fb6918e3          	bne	s2,s6,80100084 <main+0x5c>
801000d8:	00100513          	li	a0,1
801000dc:	02840413          	addi	s0,s0,40
801000e0:	f31ff0ef          	jal	ra,80100010 <nemu_assert>
801000e4:	02848493          	addi	s1,s1,40
801000e8:	02898993          	addi	s3,s3,40
801000ec:	f94418e3          	bne	s0,s4,8010007c <main+0x54>
801000f0:	00100513          	li	a0,1
801000f4:	f1dff0ef          	jal	ra,80100010 <nemu_assert>
801000f8:	02c12083          	lw	ra,44(sp)
801000fc:	02812403          	lw	s0,40(sp)
80100100:	02412483          	lw	s1,36(sp)
80100104:	02012903          	lw	s2,32(sp)
80100108:	01c12983          	lw	s3,28(sp)
8010010c:	01812a03          	lw	s4,24(sp)
80100110:	01412a83          	lw	s5,20(sp)
80100114:	01012b03          	lw	s6,16(sp)
80100118:	00c12b83          	lw	s7,12(sp)
8010011c:	00000513          	li	a0,0
80100120:	03010113          	addi	sp,sp,48
80100124:	00008067          	ret

Disassembly of section .text._halt:

80100128 <_halt>:
80100128:	00050513          	mv	a0,a0
8010012c:	0000006b          	0x6b
80100130:	0000006f          	j	80100130 <_halt+0x8>

Disassembly of section .text._trm_init:

80100134 <_trm_init>:
80100134:	80000537          	lui	a0,0x80000
80100138:	ff010113          	addi	sp,sp,-16
8010013c:	00050513          	mv	a0,a0
80100140:	00112623          	sw	ra,12(sp)
80100144:	ee5ff0ef          	jal	ra,80100028 <_etext>
80100148:	00050513          	mv	a0,a0
8010014c:	0000006b          	0x6b
80100150:	0000006f          	j	80100150 <_trm_init+0x1c>
