
/home/zzy/Desktop/ics2019/nexus-am/tests/cputest/build/min3-riscv32-nemu.elf:     file format elf32-littleriscv


Disassembly of section .text:

80100000 <_start>:
80100000:	00000413          	li	s0,0
80100004:	00009117          	auipc	sp,0x9
80100008:	ffc10113          	addi	sp,sp,-4 # 80109000 <_end>
8010000c:	134000ef          	jal	ra,80100140 <_trm_init>

80100010 <nemu_assert>:
80100010:	00050463          	beqz	a0,80100018 <nemu_assert+0x8>
80100014:	00008067          	ret
80100018:	ff010113          	addi	sp,sp,-16
8010001c:	00100513          	li	a0,1
80100020:	00112623          	sw	ra,12(sp)
80100024:	110000ef          	jal	ra,80100134 <_halt>

80100028 <min3>:
80100028:	00b65463          	ble	a1,a2,80100030 <min3+0x8>
8010002c:	00060593          	mv	a1,a2
80100030:	00b55463          	ble	a1,a0,80100038 <min3+0x10>
80100034:	00050593          	mv	a1,a0
80100038:	00058513          	mv	a0,a1
8010003c:	00008067          	ret

Disassembly of section .text.startup:

80100040 <main>:
80100040:	fd010113          	addi	sp,sp,-48
80100044:	01812423          	sw	s8,8(sp)
80100048:	80100c37          	lui	s8,0x80100
8010004c:	01712623          	sw	s7,12(sp)
80100050:	160c0b93          	addi	s7,s8,352 # 80100160 <_heap_end+0xf8100160>
80100054:	01912223          	sw	s9,4(sp)
80100058:	010b8c93          	addi	s9,s7,16
8010005c:	01412c23          	sw	s4,24(sp)
80100060:	02112623          	sw	ra,44(sp)
80100064:	02812423          	sw	s0,40(sp)
80100068:	02912223          	sw	s1,36(sp)
8010006c:	03212023          	sw	s2,32(sp)
80100070:	01312e23          	sw	s3,28(sp)
80100074:	01512a23          	sw	s5,20(sp)
80100078:	01612823          	sw	s6,16(sp)
8010007c:	000c8a13          	mv	s4,s9
80100080:	160c0c13          	addi	s8,s8,352
80100084:	000c2b03          	lw	s6,0(s8)
80100088:	000c8a93          	mv	s5,s9
8010008c:	000b8993          	mv	s3,s7
80100090:	0009a903          	lw	s2,0(s3)
80100094:	012b5463          	ble	s2,s6,8010009c <main+0x5c>
80100098:	000b0913          	mv	s2,s6
8010009c:	000a8493          	mv	s1,s5
801000a0:	000b8413          	mv	s0,s7
801000a4:	00042503          	lw	a0,0(s0)
801000a8:	00440413          	addi	s0,s0,4
801000ac:	00a95463          	ble	a0,s2,801000b4 <main+0x74>
801000b0:	00090513          	mv	a0,s2
801000b4:	0004a783          	lw	a5,0(s1)
801000b8:	00448493          	addi	s1,s1,4
801000bc:	40f50533          	sub	a0,a0,a5
801000c0:	00153513          	seqz	a0,a0
801000c4:	f4dff0ef          	jal	ra,80100010 <nemu_assert>
801000c8:	fd441ee3          	bne	s0,s4,801000a4 <main+0x64>
801000cc:	00100513          	li	a0,1
801000d0:	00498993          	addi	s3,s3,4
801000d4:	f3dff0ef          	jal	ra,80100010 <nemu_assert>
801000d8:	010a8a93          	addi	s5,s5,16
801000dc:	fa899ae3          	bne	s3,s0,80100090 <main+0x50>
801000e0:	00100513          	li	a0,1
801000e4:	004c0c13          	addi	s8,s8,4
801000e8:	f29ff0ef          	jal	ra,80100010 <nemu_assert>
801000ec:	040c8c93          	addi	s9,s9,64
801000f0:	f93c1ae3          	bne	s8,s3,80100084 <main+0x44>
801000f4:	00100513          	li	a0,1
801000f8:	f19ff0ef          	jal	ra,80100010 <nemu_assert>
801000fc:	02c12083          	lw	ra,44(sp)
80100100:	02812403          	lw	s0,40(sp)
80100104:	02412483          	lw	s1,36(sp)
80100108:	02012903          	lw	s2,32(sp)
8010010c:	01c12983          	lw	s3,28(sp)
80100110:	01812a03          	lw	s4,24(sp)
80100114:	01412a83          	lw	s5,20(sp)
80100118:	01012b03          	lw	s6,16(sp)
8010011c:	00c12b83          	lw	s7,12(sp)
80100120:	00812c03          	lw	s8,8(sp)
80100124:	00412c83          	lw	s9,4(sp)
80100128:	00000513          	li	a0,0
8010012c:	03010113          	addi	sp,sp,48
80100130:	00008067          	ret

Disassembly of section .text._halt:

80100134 <_halt>:
80100134:	00050513          	mv	a0,a0
80100138:	0000006b          	0x6b
8010013c:	0000006f          	j	8010013c <_halt+0x8>

Disassembly of section .text._trm_init:

80100140 <_trm_init>:
80100140:	80000537          	lui	a0,0x80000
80100144:	ff010113          	addi	sp,sp,-16
80100148:	00050513          	mv	a0,a0
8010014c:	00112623          	sw	ra,12(sp)
80100150:	ef1ff0ef          	jal	ra,80100040 <_etext>
80100154:	00050513          	mv	a0,a0
80100158:	0000006b          	0x6b
8010015c:	0000006f          	j	8010015c <_trm_init+0x1c>
