
/home/zzy/Desktop/ics2019/nexus-am/tests/cputest/build/mov-c-riscv32-nemu.elf:     file format elf32-littleriscv


Disassembly of section .text:

80100000 <_start>:
80100000:	00000413          	li	s0,0
80100004:	00009117          	auipc	sp,0x9
80100008:	ffc10113          	addi	sp,sp,-4 # 80109000 <_end>
8010000c:	0fc000ef          	jal	ra,80100108 <_trm_init>

80100010 <nemu_assert>:
80100010:	00050463          	beqz	a0,80100018 <nemu_assert+0x8>
80100014:	00008067          	ret
80100018:	ff010113          	addi	sp,sp,-16
8010001c:	00100513          	li	a0,1
80100020:	00112623          	sw	ra,12(sp)
80100024:	0d8000ef          	jal	ra,801000fc <_halt>

Disassembly of section .text.startup:

80100028 <main>:
80100028:	ff010113          	addi	sp,sp,-16
8010002c:	801007b7          	lui	a5,0x80100
80100030:	1207a623          	sw	zero,300(a5) # 8010012c <_heap_end+0xf810012c>
80100034:	00812423          	sw	s0,8(sp)
80100038:	00100713          	li	a4,1
8010003c:	12c78413          	addi	s0,a5,300
80100040:	00e42223          	sw	a4,4(s0)
80100044:	00200713          	li	a4,2
80100048:	00e42423          	sw	a4,8(s0)
8010004c:	00300713          	li	a4,3
80100050:	00e42623          	sw	a4,12(s0)
80100054:	00400713          	li	a4,4
80100058:	00e42823          	sw	a4,16(s0)
8010005c:	00c42703          	lw	a4,12(s0)
80100060:	00912223          	sw	s1,4(sp)
80100064:	801004b7          	lui	s1,0x80100
80100068:	12e4a423          	sw	a4,296(s1) # 80100128 <_heap_end+0xf8100128>
8010006c:	1284a703          	lw	a4,296(s1)
80100070:	00112623          	sw	ra,12(sp)
80100074:	00e42a23          	sw	a4,20(s0)
80100078:	12c7a503          	lw	a0,300(a5)
8010007c:	00153513          	seqz	a0,a0
80100080:	f91ff0ef          	jal	ra,80100010 <nemu_assert>
80100084:	00442503          	lw	a0,4(s0)
80100088:	fff50513          	addi	a0,a0,-1
8010008c:	00153513          	seqz	a0,a0
80100090:	f81ff0ef          	jal	ra,80100010 <nemu_assert>
80100094:	00842503          	lw	a0,8(s0)
80100098:	ffe50513          	addi	a0,a0,-2
8010009c:	00153513          	seqz	a0,a0
801000a0:	f71ff0ef          	jal	ra,80100010 <nemu_assert>
801000a4:	00c42503          	lw	a0,12(s0)
801000a8:	ffd50513          	addi	a0,a0,-3
801000ac:	00153513          	seqz	a0,a0
801000b0:	f61ff0ef          	jal	ra,80100010 <nemu_assert>
801000b4:	01042503          	lw	a0,16(s0)
801000b8:	ffc50513          	addi	a0,a0,-4
801000bc:	00153513          	seqz	a0,a0
801000c0:	f51ff0ef          	jal	ra,80100010 <nemu_assert>
801000c4:	1284a503          	lw	a0,296(s1)
801000c8:	ffd50513          	addi	a0,a0,-3
801000cc:	00153513          	seqz	a0,a0
801000d0:	f41ff0ef          	jal	ra,80100010 <nemu_assert>
801000d4:	01442503          	lw	a0,20(s0)
801000d8:	ffd50513          	addi	a0,a0,-3
801000dc:	00153513          	seqz	a0,a0
801000e0:	f31ff0ef          	jal	ra,80100010 <nemu_assert>
801000e4:	00c12083          	lw	ra,12(sp)
801000e8:	00812403          	lw	s0,8(sp)
801000ec:	00412483          	lw	s1,4(sp)
801000f0:	00000513          	li	a0,0
801000f4:	01010113          	addi	sp,sp,16
801000f8:	00008067          	ret

Disassembly of section .text._halt:

801000fc <_halt>:
801000fc:	00050513          	mv	a0,a0
80100100:	0000006b          	0x6b
80100104:	0000006f          	j	80100104 <_halt+0x8>

Disassembly of section .text._trm_init:

80100108 <_trm_init>:
80100108:	80000537          	lui	a0,0x80000
8010010c:	ff010113          	addi	sp,sp,-16
80100110:	00050513          	mv	a0,a0
80100114:	00112623          	sw	ra,12(sp)
80100118:	f11ff0ef          	jal	ra,80100028 <_etext>
8010011c:	00050513          	mv	a0,a0
80100120:	0000006b          	0x6b
80100124:	0000006f          	j	80100124 <_trm_init+0x1c>
