
/home/zzy/Desktop/ics2019/nexus-am/tests/cputest/build/mul-longlong-riscv32-nemu.elf:     file format elf32-littleriscv


Disassembly of section .text:

80100000 <_start>:
80100000:	00000413          	li	s0,0
80100004:	00009117          	auipc	sp,0x9
80100008:	ffc10113          	addi	sp,sp,-4 # 80109000 <_end>
8010000c:	158000ef          	jal	ra,80100164 <_trm_init>

80100010 <nemu_assert>:
80100010:	00050463          	beqz	a0,80100018 <nemu_assert+0x8>
80100014:	00008067          	ret
80100018:	ff010113          	addi	sp,sp,-16
8010001c:	00100513          	li	a0,1
80100020:	00112623          	sw	ra,12(sp)
80100024:	134000ef          	jal	ra,80100158 <_halt>

80100028 <mul>:
80100028:	02a686b3          	mul	a3,a3,a0
8010002c:	02c585b3          	mul	a1,a1,a2
80100030:	02c537b3          	mulhu	a5,a0,a2
80100034:	00d585b3          	add	a1,a1,a3
80100038:	02c50533          	mul	a0,a0,a2
8010003c:	00f585b3          	add	a1,a1,a5
80100040:	00008067          	ret

Disassembly of section .text.startup:

80100044 <main>:
80100044:	fd010113          	addi	sp,sp,-48
80100048:	02812423          	sw	s0,40(sp)
8010004c:	02912223          	sw	s1,36(sp)
80100050:	80100437          	lui	s0,0x80100
80100054:	03212023          	sw	s2,32(sp)
80100058:	01312e23          	sw	s3,28(sp)
8010005c:	01412c23          	sw	s4,24(sp)
80100060:	01512a23          	sw	s5,20(sp)
80100064:	01612823          	sw	s6,16(sp)
80100068:	801009b7          	lui	s3,0x80100
8010006c:	02112623          	sw	ra,44(sp)
80100070:	01712623          	sw	s7,12(sp)
80100074:	01812423          	sw	s8,8(sp)
80100078:	01912223          	sw	s9,4(sp)
8010007c:	00000493          	li	s1,0
80100080:	00400a93          	li	s5,4
80100084:	19840a13          	addi	s4,s0,408 # 80100198 <_heap_end+0xf8100198>
80100088:	18898993          	addi	s3,s3,392 # 80100188 <_heap_end+0xf8100188>
8010008c:	00000913          	li	s2,0
80100090:	19840413          	addi	s0,s0,408
80100094:	00300b13          	li	s6,3
80100098:	07548a63          	beq	s1,s5,8010010c <main+0xc8>
8010009c:	0009ac83          	lw	s9,0(s3)
801000a0:	00391b93          	slli	s7,s2,0x3
801000a4:	017a0bb3          	add	s7,s4,s7
801000a8:	00098c13          	mv	s8,s3
801000ac:	00040a13          	mv	s4,s0
801000b0:	000c8793          	mv	a5,s9
801000b4:	02fc86b3          	mul	a3,s9,a5
801000b8:	000ba503          	lw	a0,0(s7)
801000bc:	004ba703          	lw	a4,4(s7)
801000c0:	004c0c13          	addi	s8,s8,4
801000c4:	008b8b93          	addi	s7,s7,8
801000c8:	02fc97b3          	mulh	a5,s9,a5
801000cc:	00d54533          	xor	a0,a0,a3
801000d0:	00f747b3          	xor	a5,a4,a5
801000d4:	00f56533          	or	a0,a0,a5
801000d8:	00153513          	seqz	a0,a0
801000dc:	f35ff0ef          	jal	ra,80100010 <nemu_assert>
801000e0:	01840663          	beq	s0,s8,801000ec <main+0xa8>
801000e4:	000c2783          	lw	a5,0(s8)
801000e8:	fcdff06f          	j	801000b4 <main+0x70>
801000ec:	00490913          	addi	s2,s2,4
801000f0:	00100513          	li	a0,1
801000f4:	40990933          	sub	s2,s2,s1
801000f8:	f19ff0ef          	jal	ra,80100010 <nemu_assert>
801000fc:	01648e63          	beq	s1,s6,80100118 <main+0xd4>
80100100:	00148493          	addi	s1,s1,1
80100104:	00498993          	addi	s3,s3,4
80100108:	f9549ae3          	bne	s1,s5,8010009c <main+0x58>
8010010c:	00100513          	li	a0,1
80100110:	f01ff0ef          	jal	ra,80100010 <nemu_assert>
80100114:	fedff06f          	j	80100100 <main+0xbc>
80100118:	00100513          	li	a0,1
8010011c:	ef5ff0ef          	jal	ra,80100010 <nemu_assert>
80100120:	02c12083          	lw	ra,44(sp)
80100124:	02812403          	lw	s0,40(sp)
80100128:	02412483          	lw	s1,36(sp)
8010012c:	02012903          	lw	s2,32(sp)
80100130:	01c12983          	lw	s3,28(sp)
80100134:	01812a03          	lw	s4,24(sp)
80100138:	01412a83          	lw	s5,20(sp)
8010013c:	01012b03          	lw	s6,16(sp)
80100140:	00c12b83          	lw	s7,12(sp)
80100144:	00812c03          	lw	s8,8(sp)
80100148:	00412c83          	lw	s9,4(sp)
8010014c:	00000513          	li	a0,0
80100150:	03010113          	addi	sp,sp,48
80100154:	00008067          	ret

Disassembly of section .text._halt:

80100158 <_halt>:
80100158:	00050513          	mv	a0,a0
8010015c:	0000006b          	0x6b
80100160:	0000006f          	j	80100160 <_halt+0x8>

Disassembly of section .text._trm_init:

80100164 <_trm_init>:
80100164:	80000537          	lui	a0,0x80000
80100168:	ff010113          	addi	sp,sp,-16
8010016c:	00050513          	mv	a0,a0
80100170:	00112623          	sw	ra,12(sp)
80100174:	ed1ff0ef          	jal	ra,80100044 <_etext>
80100178:	00050513          	mv	a0,a0
8010017c:	0000006b          	0x6b
80100180:	0000006f          	j	80100180 <_trm_init+0x1c>
