
/home/zzy/Desktop/ics2019/nexus-am/tests/cputest/build/pascal-riscv32-nemu.elf:     file format elf32-littleriscv


Disassembly of section .text:

80100000 <_start>:
80100000:	00000413          	li	s0,0
80100004:	00009117          	auipc	sp,0x9
80100008:	ffc10113          	addi	sp,sp,-4 # 80109000 <_end>
8010000c:	0f8000ef          	jal	ra,80100104 <_trm_init>

80100010 <nemu_assert>:
80100010:	00050463          	beqz	a0,80100018 <nemu_assert+0x8>
80100014:	00008067          	ret
80100018:	ff010113          	addi	sp,sp,-16
8010001c:	00100513          	li	a0,1
80100020:	00112623          	sw	ra,12(sp)
80100024:	0d4000ef          	jal	ra,801000f8 <_halt>

Disassembly of section .text.startup:

80100028 <main>:
80100028:	ff010113          	addi	sp,sp,-16
8010002c:	00812423          	sw	s0,8(sp)
80100030:	80100437          	lui	s0,0x80100
80100034:	1a040713          	addi	a4,s0,416 # 801001a0 <_heap_end+0xf81001a0>
80100038:	01212023          	sw	s2,0(sp)
8010003c:	00100793          	li	a5,1
80100040:	1a040893          	addi	a7,s0,416
80100044:	00112623          	sw	ra,12(sp)
80100048:	00912223          	sw	s1,4(sp)
8010004c:	801005b7          	lui	a1,0x80100
80100050:	80100537          	lui	a0,0x80100
80100054:	00f72223          	sw	a5,4(a4)
80100058:	1af42023          	sw	a5,416(s0)
8010005c:	1a858593          	addi	a1,a1,424 # 801001a8 <_heap_end+0xf81001a8>
80100060:	1a040413          	addi	s0,s0,416
80100064:	07c88913          	addi	s2,a7,124
80100068:	00100713          	li	a4,1
8010006c:	1a450513          	addi	a0,a0,420 # 801001a4 <_heap_end+0xf81001a4>
80100070:	00100813          	li	a6,1
80100074:	00050793          	mv	a5,a0
80100078:	00100693          	li	a3,1
8010007c:	0080006f          	j	80100084 <main+0x5c>
80100080:	0007a703          	lw	a4,0(a5)
80100084:	00d70633          	add	a2,a4,a3
80100088:	00c7a023          	sw	a2,0(a5)
8010008c:	00478793          	addi	a5,a5,4
80100090:	00070693          	mv	a3,a4
80100094:	feb796e3          	bne	a5,a1,80100080 <main+0x58>
80100098:	0105a023          	sw	a6,0(a1)
8010009c:	00458593          	addi	a1,a1,4
801000a0:	01258663          	beq	a1,s2,801000ac <main+0x84>
801000a4:	0048a703          	lw	a4,4(a7)
801000a8:	fcdff06f          	j	80100074 <main+0x4c>
801000ac:	801004b7          	lui	s1,0x80100
801000b0:	12448493          	addi	s1,s1,292 # 80100124 <_heap_end+0xf8100124>
801000b4:	00042503          	lw	a0,0(s0)
801000b8:	0004a783          	lw	a5,0(s1)
801000bc:	00440413          	addi	s0,s0,4
801000c0:	00448493          	addi	s1,s1,4
801000c4:	40f50533          	sub	a0,a0,a5
801000c8:	00153513          	seqz	a0,a0
801000cc:	f45ff0ef          	jal	ra,80100010 <nemu_assert>
801000d0:	ff2412e3          	bne	s0,s2,801000b4 <main+0x8c>
801000d4:	00100513          	li	a0,1
801000d8:	f39ff0ef          	jal	ra,80100010 <nemu_assert>
801000dc:	00c12083          	lw	ra,12(sp)
801000e0:	00812403          	lw	s0,8(sp)
801000e4:	00412483          	lw	s1,4(sp)
801000e8:	00012903          	lw	s2,0(sp)
801000ec:	00000513          	li	a0,0
801000f0:	01010113          	addi	sp,sp,16
801000f4:	00008067          	ret

Disassembly of section .text._halt:

801000f8 <_halt>:
801000f8:	00050513          	mv	a0,a0
801000fc:	0000006b          	0x6b
80100100:	0000006f          	j	80100100 <_halt+0x8>

Disassembly of section .text._trm_init:

80100104 <_trm_init>:
80100104:	80000537          	lui	a0,0x80000
80100108:	ff010113          	addi	sp,sp,-16
8010010c:	00050513          	mv	a0,a0
80100110:	00112623          	sw	ra,12(sp)
80100114:	f15ff0ef          	jal	ra,80100028 <_etext>
80100118:	00050513          	mv	a0,a0
8010011c:	0000006b          	0x6b
80100120:	0000006f          	j	80100120 <_trm_init+0x1c>
