
/home/zzy/Desktop/ics2019/nexus-am/tests/cputest/build/quick-sort-riscv32-nemu.elf:     file format elf32-littleriscv


Disassembly of section .text:

80100000 <_start>:
80100000:	00000413          	li	s0,0
80100004:	00009117          	auipc	sp,0x9
80100008:	ffc10113          	addi	sp,sp,-4 # 80109000 <_end>
8010000c:	1fc000ef          	jal	ra,80100208 <_trm_init>

80100010 <nemu_assert>:
80100010:	00050463          	beqz	a0,80100018 <nemu_assert+0x8>
80100014:	00008067          	ret
80100018:	ff010113          	addi	sp,sp,-16
8010001c:	00100513          	li	a0,1
80100020:	00112623          	sw	ra,12(sp)
80100024:	1d8000ef          	jal	ra,801001fc <_halt>

80100028 <partition>:
80100028:	00259793          	slli	a5,a1,0x2
8010002c:	00f50333          	add	t1,a0,a5
80100030:	00032883          	lw	a7,0(t1)
80100034:	08c5d663          	ble	a2,a1,801000c0 <partition+0x98>
80100038:	00261693          	slli	a3,a2,0x2
8010003c:	00d506b3          	add	a3,a0,a3
80100040:	0006a703          	lw	a4,0(a3)
80100044:	00068813          	mv	a6,a3
80100048:	02e8dc63          	ble	a4,a7,80100080 <partition+0x58>
8010004c:	fff60613          	addi	a2,a2,-1
80100050:	ffc80693          	addi	a3,a6,-4
80100054:	fec5c6e3          	blt	a1,a2,80100040 <partition+0x18>
80100058:	00261613          	slli	a2,a2,0x2
8010005c:	00c50833          	add	a6,a0,a2
80100060:	00082703          	lw	a4,0(a6)
80100064:	00f50333          	add	t1,a0,a5
80100068:	00058613          	mv	a2,a1
8010006c:	00e32023          	sw	a4,0(t1)
80100070:	00e82023          	sw	a4,0(a6)
80100074:	00060513          	mv	a0,a2
80100078:	01132023          	sw	a7,0(t1)
8010007c:	00008067          	ret
80100080:	00f50333          	add	t1,a0,a5
80100084:	00e32023          	sw	a4,0(t1)
80100088:	02c5d863          	ble	a2,a1,801000b8 <partition+0x90>
8010008c:	00478793          	addi	a5,a5,4
80100090:	00f507b3          	add	a5,a0,a5
80100094:	00158593          	addi	a1,a1,1
80100098:	0007a703          	lw	a4,0(a5)
8010009c:	00078313          	mv	t1,a5
801000a0:	fcc588e3          	beq	a1,a2,80100070 <partition+0x48>
801000a4:	00478793          	addi	a5,a5,4
801000a8:	fee8d6e3          	ble	a4,a7,80100094 <partition+0x6c>
801000ac:	00e6a023          	sw	a4,0(a3)
801000b0:	00259793          	slli	a5,a1,0x2
801000b4:	f85ff06f          	j	80100038 <partition+0x10>
801000b8:	00058613          	mv	a2,a1
801000bc:	fb5ff06f          	j	80100070 <partition+0x48>
801000c0:	00058513          	mv	a0,a1
801000c4:	01132023          	sw	a7,0(t1)
801000c8:	00008067          	ret

801000cc <quick_sort>:
801000cc:	06c5d463          	ble	a2,a1,80100134 <quick_sort+0x68>
801000d0:	ff010113          	addi	sp,sp,-16
801000d4:	00812423          	sw	s0,8(sp)
801000d8:	00912223          	sw	s1,4(sp)
801000dc:	01212023          	sw	s2,0(sp)
801000e0:	00112623          	sw	ra,12(sp)
801000e4:	00058413          	mv	s0,a1
801000e8:	00060493          	mv	s1,a2
801000ec:	00050913          	mv	s2,a0
801000f0:	00040593          	mv	a1,s0
801000f4:	00048613          	mv	a2,s1
801000f8:	00090513          	mv	a0,s2
801000fc:	f2dff0ef          	jal	ra,80100028 <partition>
80100100:	00050793          	mv	a5,a0
80100104:	00040593          	mv	a1,s0
80100108:	fff50613          	addi	a2,a0,-1
8010010c:	00178413          	addi	s0,a5,1
80100110:	00090513          	mv	a0,s2
80100114:	fb9ff0ef          	jal	ra,801000cc <quick_sort>
80100118:	fc944ce3          	blt	s0,s1,801000f0 <quick_sort+0x24>
8010011c:	00c12083          	lw	ra,12(sp)
80100120:	00812403          	lw	s0,8(sp)
80100124:	00412483          	lw	s1,4(sp)
80100128:	00012903          	lw	s2,0(sp)
8010012c:	01010113          	addi	sp,sp,16
80100130:	00008067          	ret
80100134:	00008067          	ret

Disassembly of section .text.startup:

80100138 <main>:
80100138:	fe010113          	addi	sp,sp,-32
8010013c:	01412423          	sw	s4,8(sp)
80100140:	80100a37          	lui	s4,0x80100
80100144:	01300613          	li	a2,19
80100148:	00000593          	li	a1,0
8010014c:	228a0513          	addi	a0,s4,552 # 80100228 <_heap_end+0xf8100228>
80100150:	00812c23          	sw	s0,24(sp)
80100154:	00912a23          	sw	s1,20(sp)
80100158:	01212823          	sw	s2,16(sp)
8010015c:	01312623          	sw	s3,12(sp)
80100160:	00112e23          	sw	ra,28(sp)
80100164:	228a0493          	addi	s1,s4,552
80100168:	f65ff0ef          	jal	ra,801000cc <quick_sort>
8010016c:	228a0913          	addi	s2,s4,552
80100170:	00000413          	li	s0,0
80100174:	01400993          	li	s3,20
80100178:	00092503          	lw	a0,0(s2)
8010017c:	00490913          	addi	s2,s2,4
80100180:	40850533          	sub	a0,a0,s0
80100184:	00153513          	seqz	a0,a0
80100188:	00140413          	addi	s0,s0,1
8010018c:	e85ff0ef          	jal	ra,80100010 <nemu_assert>
80100190:	ff3414e3          	bne	s0,s3,80100178 <main+0x40>
80100194:	00100513          	li	a0,1
80100198:	e79ff0ef          	jal	ra,80100010 <nemu_assert>
8010019c:	01300613          	li	a2,19
801001a0:	00000593          	li	a1,0
801001a4:	228a0513          	addi	a0,s4,552
801001a8:	f25ff0ef          	jal	ra,801000cc <quick_sort>
801001ac:	00000413          	li	s0,0
801001b0:	01400913          	li	s2,20
801001b4:	0004a503          	lw	a0,0(s1)
801001b8:	00448493          	addi	s1,s1,4
801001bc:	40850533          	sub	a0,a0,s0
801001c0:	00153513          	seqz	a0,a0
801001c4:	00140413          	addi	s0,s0,1
801001c8:	e49ff0ef          	jal	ra,80100010 <nemu_assert>
801001cc:	ff2414e3          	bne	s0,s2,801001b4 <main+0x7c>
801001d0:	00100513          	li	a0,1
801001d4:	e3dff0ef          	jal	ra,80100010 <nemu_assert>
801001d8:	01c12083          	lw	ra,28(sp)
801001dc:	01812403          	lw	s0,24(sp)
801001e0:	01412483          	lw	s1,20(sp)
801001e4:	01012903          	lw	s2,16(sp)
801001e8:	00c12983          	lw	s3,12(sp)
801001ec:	00812a03          	lw	s4,8(sp)
801001f0:	00000513          	li	a0,0
801001f4:	02010113          	addi	sp,sp,32
801001f8:	00008067          	ret

Disassembly of section .text._halt:

801001fc <_halt>:
801001fc:	00050513          	mv	a0,a0
80100200:	0000006b          	0x6b
80100204:	0000006f          	j	80100204 <_halt+0x8>

Disassembly of section .text._trm_init:

80100208 <_trm_init>:
80100208:	80000537          	lui	a0,0x80000
8010020c:	ff010113          	addi	sp,sp,-16
80100210:	00050513          	mv	a0,a0
80100214:	00112623          	sw	ra,12(sp)
80100218:	f21ff0ef          	jal	ra,80100138 <_etext>
8010021c:	00050513          	mv	a0,a0
80100220:	0000006b          	0x6b
80100224:	0000006f          	j	80100224 <_trm_init+0x1c>
