
/home/zzy/Desktop/ics2019/nexus-am/tests/cputest/build/select-sort-riscv32-nemu.elf:     file format elf32-littleriscv


Disassembly of section .text:

80100000 <_start>:
80100000:	00000413          	li	s0,0
80100004:	00009117          	auipc	sp,0x9
80100008:	ffc10113          	addi	sp,sp,-4 # 80109000 <_end>
8010000c:	1f8000ef          	jal	ra,80100204 <_trm_init>

80100010 <nemu_assert>:
80100010:	00050463          	beqz	a0,80100018 <nemu_assert+0x8>
80100014:	00008067          	ret
80100018:	ff010113          	addi	sp,sp,-16
8010001c:	00100513          	li	a0,1
80100020:	00112623          	sw	ra,12(sp)
80100024:	1d4000ef          	jal	ra,801001f8 <_halt>

80100028 <select_sort>:
80100028:	80100e37          	lui	t3,0x80100
8010002c:	224e0e13          	addi	t3,t3,548 # 80100224 <_heap_end+0xf8100224>
80100030:	004e0813          	addi	a6,t3,4
80100034:	00000593          	li	a1,0
80100038:	01400513          	li	a0,20
8010003c:	01300e93          	li	t4,19
80100040:	ffc82303          	lw	t1,-4(a6)
80100044:	00158893          	addi	a7,a1,1
80100048:	00080713          	mv	a4,a6
8010004c:	00030613          	mv	a2,t1
80100050:	00088793          	mv	a5,a7
80100054:	00072683          	lw	a3,0(a4)
80100058:	00470713          	addi	a4,a4,4
8010005c:	00c6d663          	ble	a2,a3,80100068 <select_sort+0x40>
80100060:	00078593          	mv	a1,a5
80100064:	00068613          	mv	a2,a3
80100068:	00178793          	addi	a5,a5,1
8010006c:	fea794e3          	bne	a5,a0,80100054 <select_sort+0x2c>
80100070:	00259593          	slli	a1,a1,0x2
80100074:	fec82e23          	sw	a2,-4(a6)
80100078:	00be05b3          	add	a1,t3,a1
8010007c:	0065a023          	sw	t1,0(a1)
80100080:	00480813          	addi	a6,a6,4
80100084:	00088593          	mv	a1,a7
80100088:	fbd89ce3          	bne	a7,t4,80100040 <select_sort+0x18>
8010008c:	00008067          	ret

Disassembly of section .text.startup:

80100090 <main>:
80100090:	fe010113          	addi	sp,sp,-32
80100094:	01412423          	sw	s4,8(sp)
80100098:	80100a37          	lui	s4,0x80100
8010009c:	224a0a13          	addi	s4,s4,548 # 80100224 <_heap_end+0xf8100224>
801000a0:	00812c23          	sw	s0,24(sp)
801000a4:	004a0413          	addi	s0,s4,4
801000a8:	00112e23          	sw	ra,28(sp)
801000ac:	00912a23          	sw	s1,20(sp)
801000b0:	01212823          	sw	s2,16(sp)
801000b4:	01312623          	sw	s3,12(sp)
801000b8:	01512223          	sw	s5,4(sp)
801000bc:	00040813          	mv	a6,s0
801000c0:	00000593          	li	a1,0
801000c4:	01400513          	li	a0,20
801000c8:	01300e13          	li	t3,19
801000cc:	ffc82303          	lw	t1,-4(a6)
801000d0:	00158893          	addi	a7,a1,1
801000d4:	00080713          	mv	a4,a6
801000d8:	00030613          	mv	a2,t1
801000dc:	00088793          	mv	a5,a7
801000e0:	00072683          	lw	a3,0(a4)
801000e4:	00470713          	addi	a4,a4,4
801000e8:	00c6d663          	ble	a2,a3,801000f4 <main+0x64>
801000ec:	00078593          	mv	a1,a5
801000f0:	00068613          	mv	a2,a3
801000f4:	00178793          	addi	a5,a5,1
801000f8:	fea794e3          	bne	a5,a0,801000e0 <main+0x50>
801000fc:	00259593          	slli	a1,a1,0x2
80100100:	fec82e23          	sw	a2,-4(a6)
80100104:	00ba05b3          	add	a1,s4,a1
80100108:	0065a023          	sw	t1,0(a1)
8010010c:	00480813          	addi	a6,a6,4
80100110:	00088593          	mv	a1,a7
80100114:	fbc89ce3          	bne	a7,t3,801000cc <main+0x3c>
80100118:	000a0913          	mv	s2,s4
8010011c:	000a0993          	mv	s3,s4
80100120:	00000493          	li	s1,0
80100124:	01400a93          	li	s5,20
80100128:	0009a503          	lw	a0,0(s3)
8010012c:	00498993          	addi	s3,s3,4
80100130:	40950533          	sub	a0,a0,s1
80100134:	00153513          	seqz	a0,a0
80100138:	00148493          	addi	s1,s1,1
8010013c:	ed5ff0ef          	jal	ra,80100010 <nemu_assert>
80100140:	ff5494e3          	bne	s1,s5,80100128 <main+0x98>
80100144:	00100513          	li	a0,1
80100148:	ec9ff0ef          	jal	ra,80100010 <nemu_assert>
8010014c:	00000593          	li	a1,0
80100150:	01400513          	li	a0,20
80100154:	01300313          	li	t1,19
80100158:	ffc42883          	lw	a7,-4(s0)
8010015c:	00158813          	addi	a6,a1,1
80100160:	00040713          	mv	a4,s0
80100164:	00088613          	mv	a2,a7
80100168:	00080793          	mv	a5,a6
8010016c:	00072683          	lw	a3,0(a4)
80100170:	00470713          	addi	a4,a4,4
80100174:	00c6d663          	ble	a2,a3,80100180 <main+0xf0>
80100178:	00078593          	mv	a1,a5
8010017c:	00068613          	mv	a2,a3
80100180:	00178793          	addi	a5,a5,1
80100184:	fea794e3          	bne	a5,a0,8010016c <main+0xdc>
80100188:	00259593          	slli	a1,a1,0x2
8010018c:	fec42e23          	sw	a2,-4(s0)
80100190:	00ba05b3          	add	a1,s4,a1
80100194:	0115a023          	sw	a7,0(a1)
80100198:	00440413          	addi	s0,s0,4
8010019c:	00080593          	mv	a1,a6
801001a0:	fa681ce3          	bne	a6,t1,80100158 <main+0xc8>
801001a4:	00000413          	li	s0,0
801001a8:	01400493          	li	s1,20
801001ac:	00092503          	lw	a0,0(s2)
801001b0:	00490913          	addi	s2,s2,4
801001b4:	40850533          	sub	a0,a0,s0
801001b8:	00153513          	seqz	a0,a0
801001bc:	00140413          	addi	s0,s0,1
801001c0:	e51ff0ef          	jal	ra,80100010 <nemu_assert>
801001c4:	fe9414e3          	bne	s0,s1,801001ac <main+0x11c>
801001c8:	00100513          	li	a0,1
801001cc:	e45ff0ef          	jal	ra,80100010 <nemu_assert>
801001d0:	01c12083          	lw	ra,28(sp)
801001d4:	01812403          	lw	s0,24(sp)
801001d8:	01412483          	lw	s1,20(sp)
801001dc:	01012903          	lw	s2,16(sp)
801001e0:	00c12983          	lw	s3,12(sp)
801001e4:	00812a03          	lw	s4,8(sp)
801001e8:	00412a83          	lw	s5,4(sp)
801001ec:	00000513          	li	a0,0
801001f0:	02010113          	addi	sp,sp,32
801001f4:	00008067          	ret

Disassembly of section .text._halt:

801001f8 <_halt>:
801001f8:	00050513          	mv	a0,a0
801001fc:	0000006b          	0x6b
80100200:	0000006f          	j	80100200 <_halt+0x8>

Disassembly of section .text._trm_init:

80100204 <_trm_init>:
80100204:	80000537          	lui	a0,0x80000
80100208:	ff010113          	addi	sp,sp,-16
8010020c:	00050513          	mv	a0,a0
80100210:	00112623          	sw	ra,12(sp)
80100214:	e7dff0ef          	jal	ra,80100090 <_etext>
80100218:	00050513          	mv	a0,a0
8010021c:	0000006b          	0x6b
80100220:	0000006f          	j	80100220 <_trm_init+0x1c>
