
/home/zzy/Desktop/ics2019/nexus-am/tests/cputest/build/switch-riscv32-nemu.elf:     file format elf32-littleriscv


Disassembly of section .text:

80100000 <_start>:
80100000:	00000413          	li	s0,0
80100004:	00009117          	auipc	sp,0x9
80100008:	ffc10113          	addi	sp,sp,-4 # 80109000 <_end>
8010000c:	0ec000ef          	jal	ra,801000f8 <_trm_init>

80100010 <nemu_assert>:
80100010:	00050463          	beqz	a0,80100018 <nemu_assert+0x8>
80100014:	00008067          	ret
80100018:	ff010113          	addi	sp,sp,-16
8010001c:	00100513          	li	a0,1
80100020:	00112623          	sw	ra,12(sp)
80100024:	0c8000ef          	jal	ra,801000ec <_halt>

80100028 <switch_case>:
80100028:	00c00793          	li	a5,12
8010002c:	00a7ee63          	bltu	a5,a0,80100048 <switch_case+0x20>
80100030:	801007b7          	lui	a5,0x80100
80100034:	11878793          	addi	a5,a5,280 # 80100118 <_heap_end+0xf8100118>
80100038:	00251513          	slli	a0,a0,0x2
8010003c:	00a78533          	add	a0,a5,a0
80100040:	00052503          	lw	a0,0(a0)
80100044:	00008067          	ret
80100048:	fff00513          	li	a0,-1
8010004c:	00008067          	ret

Disassembly of section .text.startup:

80100050 <main>:
80100050:	fe010113          	addi	sp,sp,-32
80100054:	00912a23          	sw	s1,20(sp)
80100058:	01212823          	sw	s2,16(sp)
8010005c:	801004b7          	lui	s1,0x80100
80100060:	80100937          	lui	s2,0x80100
80100064:	00812c23          	sw	s0,24(sp)
80100068:	01312623          	sw	s3,12(sp)
8010006c:	01412423          	sw	s4,8(sp)
80100070:	00112e23          	sw	ra,28(sp)
80100074:	14c48493          	addi	s1,s1,332 # 8010014c <_heap_end+0xf810014c>
80100078:	00000413          	li	s0,0
8010007c:	fff00713          	li	a4,-1
80100080:	00e00993          	li	s3,14
80100084:	00d00a13          	li	s4,13
80100088:	11890913          	addi	s2,s2,280 # 80100118 <_heap_end+0xf8100118>
8010008c:	0004a503          	lw	a0,0(s1)
80100090:	00448493          	addi	s1,s1,4
80100094:	40e50533          	sub	a0,a0,a4
80100098:	00153513          	seqz	a0,a0
8010009c:	f75ff0ef          	jal	ra,80100010 <nemu_assert>
801000a0:	00241793          	slli	a5,s0,0x2
801000a4:	00f907b3          	add	a5,s2,a5
801000a8:	01340c63          	beq	s0,s3,801000c0 <main+0x70>
801000ac:	fff00713          	li	a4,-1
801000b0:	01440463          	beq	s0,s4,801000b8 <main+0x68>
801000b4:	0007a703          	lw	a4,0(a5)
801000b8:	00140413          	addi	s0,s0,1
801000bc:	fd1ff06f          	j	8010008c <main+0x3c>
801000c0:	00100513          	li	a0,1
801000c4:	f4dff0ef          	jal	ra,80100010 <nemu_assert>
801000c8:	01c12083          	lw	ra,28(sp)
801000cc:	01812403          	lw	s0,24(sp)
801000d0:	01412483          	lw	s1,20(sp)
801000d4:	01012903          	lw	s2,16(sp)
801000d8:	00c12983          	lw	s3,12(sp)
801000dc:	00812a03          	lw	s4,8(sp)
801000e0:	00000513          	li	a0,0
801000e4:	02010113          	addi	sp,sp,32
801000e8:	00008067          	ret

Disassembly of section .text._halt:

801000ec <_halt>:
801000ec:	00050513          	mv	a0,a0
801000f0:	0000006b          	0x6b
801000f4:	0000006f          	j	801000f4 <_halt+0x8>

Disassembly of section .text._trm_init:

801000f8 <_trm_init>:
801000f8:	80000537          	lui	a0,0x80000
801000fc:	ff010113          	addi	sp,sp,-16
80100100:	00050513          	mv	a0,a0
80100104:	00112623          	sw	ra,12(sp)
80100108:	f49ff0ef          	jal	ra,80100050 <_etext>
8010010c:	00050513          	mv	a0,a0
80100110:	0000006b          	0x6b
80100114:	0000006f          	j	80100114 <_trm_init+0x1c>
